---
triple:          'arm64-apple-darwin'
binary-path:     'PonyNotes-New/binaries/macos/libponynotes_xournalpp.dylib'
relocations:
  - { offset: 0x3F, size: 0x8, addend: 0x0, symName: __ZL11g_documents, symObjAddr: 0xCCC30, symBinAddr: 0xB1090, symSize: 0x0 }
  - { offset: 0x21BD4, size: 0x8, addend: 0x0, symName: __ZNSt3__120__throw_length_errorB8ne180100EPKc, symObjAddr: 0x2B54, symBinAddr: 0xE8E0, symSize: 0x50 }
  - { offset: 0x22F07, size: 0x8, addend: 0x0, symName: __ZSt28__throw_bad_array_new_lengthB8ne180100v, symObjAddr: 0x2104, symBinAddr: 0xDE90, symSize: 0x28 }
  - { offset: 0x2736E, size: 0x8, addend: 0x0, symName: __ZL17g_documents_mutex, symObjAddr: 0x3160, symBinAddr: 0xB0F40, symSize: 0x0 }
  - { offset: 0x27387, size: 0x8, addend: 0x0, symName: __ZL13g_initialized, symObjAddr: 0xCCC58, symBinAddr: 0xB10B8, symSize: 0x0 }
  - { offset: 0x2896E, size: 0x8, addend: 0x0, symName: __ZNSt3__113unordered_mapIPvNS_10unique_ptrI17PonyNotesDocumentNS_14default_deleteIS3_EEEENS_4hashIS1_EENS_8equal_toIS1_EENS_9allocatorINS_4pairIKS1_S6_EEEEED1B8ne180100Ev, symObjAddr: 0x0, symBinAddr: 0xBE7C, symSize: 0x6C }
  - { offset: 0x28D5C, size: 0x8, addend: 0x0, symName: __ZNKSt3__114default_deleteI17PonyNotesDocumentEclB8ne180100EPS1_, symObjAddr: 0x2214, symBinAddr: 0xDFA0, symSize: 0xA8 }
  - { offset: 0x28FCA, size: 0x8, addend: 0x0, symName: _pn_xournal_init, symObjAddr: 0x6C, symBinAddr: 0xBEE8, symSize: 0x14 }
  - { offset: 0x29140, size: 0x8, addend: 0x0, symName: _pn_xournal_shutdown, symObjAddr: 0x80, symBinAddr: 0xBEFC, symSize: 0xBC }
  - { offset: 0x299EE, size: 0x8, addend: 0x0, symName: _pn_xournal_doc_create, symObjAddr: 0x13C, symBinAddr: 0xBFB8, symSize: 0x244 }
  - { offset: 0x2A22C, size: 0x8, addend: 0x0, symName: __ZN17PonyNotesDocumentC2Ev, symObjAddr: 0x1F2C, symBinAddr: 0xDD58, symSize: 0x138 }
  - { offset: 0x2AA23, size: 0x8, addend: 0x0, symName: __ZNSt3__112__hash_tableINS_17__hash_value_typeIPvNS_10unique_ptrI17PonyNotesDocumentNS_14default_deleteIS4_EEEEEENS_22__unordered_map_hasherIS2_S8_NS_4hashIS2_EENS_8equal_toIS2_EELb1EEENS_21__unordered_map_equalIS2_S8_SD_SB_Lb1EEENS_9allocatorIS8_EEE25__emplace_unique_key_argsIS2_JRKNS_21piecewise_construct_tENS_5tupleIJRKS2_EEENSO_IJEEEEEENS_4pairINS_15__hash_iteratorIPNS_11__hash_nodeIS8_S2_EEEEbEERKT_DpOT0_, symObjAddr: 0x2304, symBinAddr: 0xE090, symSize: 0x314 }
  - { offset: 0x2B2FD, size: 0x8, addend: 0x0, symName: __ZNSt3__110shared_ptrI7XojPageED1B8ne180100Ev, symObjAddr: 0x380, symBinAddr: 0xC1FC, symSize: 0x50 }
  - { offset: 0x2BA3F, size: 0x8, addend: 0x0, symName: _pn_xournal_doc_open, symObjAddr: 0x3D0, symBinAddr: 0xC24C, symSize: 0x2A8 }
  - { offset: 0x2C5D1, size: 0x8, addend: 0x0, symName: __ZNSt3__112basic_stringIcNS_11char_traitsIcEENS_9allocatorIcEEE6appendB8ne180100IPKcLi0EEERS5_T_SA_, symObjAddr: 0x27C4, symBinAddr: 0xE550, symSize: 0x37C }
  - { offset: 0x2D90E, size: 0x8, addend: 0x0, symName: _pn_xournal_doc_open_pdf, symObjAddr: 0x678, symBinAddr: 0xC4F4, symSize: 0x478 }
  - { offset: 0x2E8C3, size: 0x8, addend: 0x0, symName: __ZNSt3__110unique_ptrINS_12basic_stringIcNS_11char_traitsIcEENS_9allocatorIcEEEENS_14default_deleteIS6_EEED1B8ne180100Ev, symObjAddr: 0xAF0, symBinAddr: 0xC96C, symSize: 0x44 }
  - { offset: 0x2F5F4, size: 0x8, addend: 0x0, symName: _pn_xournal_doc_save, symObjAddr: 0xB44, symBinAddr: 0xC9C0, symSize: 0x35C }
  - { offset: 0x30681, size: 0x8, addend: 0x0, symName: __ZN11SaveHandlerD1Ev, symObjAddr: 0xEA0, symBinAddr: 0xCD1C, symSize: 0xD0 }
  - { offset: 0x30BC6, size: 0x8, addend: 0x0, symName: _pn_xournal_doc_close, symObjAddr: 0xF70, symBinAddr: 0xCDEC, symSize: 0x17C }
  - { offset: 0x310AE, size: 0x8, addend: 0x0, symName: __ZNSt3__112__hash_tableINS_17__hash_value_typeIPvNS_10unique_ptrI17PonyNotesDocumentNS_14default_deleteIS4_EEEEEENS_22__unordered_map_hasherIS2_S8_NS_4hashIS2_EENS_8equal_toIS2_EELb1EEENS_21__unordered_map_equalIS2_S8_SD_SB_Lb1EEENS_9allocatorIS8_EEE6removeENS_21__hash_const_iteratorIPNS_11__hash_nodeIS8_S2_EEEE, symObjAddr: 0x2C60, symBinAddr: 0xE9EC, symSize: 0x134 }
  - { offset: 0x31129, size: 0x8, addend: 0x0, symName: __ZNSt3__112__hash_tableINS_17__hash_value_typeIPvNS_10unique_ptrI17PonyNotesDocumentNS_14default_deleteIS4_EEEEEENS_22__unordered_map_hasherIS2_S8_NS_4hashIS2_EENS_8equal_toIS2_EELb1EEENS_21__unordered_map_equalIS2_S8_SD_SB_Lb1EEENS_9allocatorIS8_EEE6removeENS_21__hash_const_iteratorIPNS_11__hash_nodeIS8_S2_EEEE, symObjAddr: 0x2C60, symBinAddr: 0xE9EC, symSize: 0x134 }
  - { offset: 0x31147, size: 0x8, addend: 0x0, symName: __ZNSt3__112__hash_tableINS_17__hash_value_typeIPvNS_10unique_ptrI17PonyNotesDocumentNS_14default_deleteIS4_EEEEEENS_22__unordered_map_hasherIS2_S8_NS_4hashIS2_EENS_8equal_toIS2_EELb1EEENS_21__unordered_map_equalIS2_S8_SD_SB_Lb1EEENS_9allocatorIS8_EEE6removeENS_21__hash_const_iteratorIPNS_11__hash_nodeIS8_S2_EEEE, symObjAddr: 0x2C60, symBinAddr: 0xE9EC, symSize: 0x134 }
  - { offset: 0x3163A, size: 0x8, addend: 0x0, symName: _pn_xournal_doc_handle_stroke, symObjAddr: 0x10EC, symBinAddr: 0xCF68, symSize: 0x384 }
  - { offset: 0x320C6, size: 0x8, addend: 0x0, symName: _pn_xournal_doc_render_page_to_png, symObjAddr: 0x1470, symBinAddr: 0xD2EC, symSize: 0x530 }
  - { offset: 0x32C6B, size: 0x8, addend: 0x0, symName: __ZN12DocumentViewD1Ev, symObjAddr: 0x19F0, symBinAddr: 0xD81C, symSize: 0x60 }
  - { offset: 0x32DA9, size: 0x8, addend: 0x0, symName: _pn_xournal_doc_get_page_count, symObjAddr: 0x1A50, symBinAddr: 0xD87C, symSize: 0x190 }
  - { offset: 0x33112, size: 0x8, addend: 0x0, symName: _pn_xournal_doc_get_page_size, symObjAddr: 0x1BE0, symBinAddr: 0xDA0C, symSize: 0x2EC }
  - { offset: 0x33871, size: 0x8, addend: 0x0, symName: __ZN12DocumentViewD0Ev, symObjAddr: 0x1ECC, symBinAddr: 0xDCF8, symSize: 0x60 }
  - { offset: 0x340AF, size: 0x8, addend: 0x0, symName: __ZNSt3__120__shared_ptr_emplaceI15DocumentHandlerNS_9allocatorIS1_EEED1Ev, symObjAddr: 0x212C, symBinAddr: 0xDEB8, symSize: 0x14 }
  - { offset: 0x340D3, size: 0x8, addend: 0x0, symName: __ZNSt3__120__shared_ptr_emplaceI15DocumentHandlerNS_9allocatorIS1_EEED1Ev, symObjAddr: 0x212C, symBinAddr: 0xDEB8, symSize: 0x14 }
  - { offset: 0x3410A, size: 0x8, addend: 0x0, symName: __ZNSt3__120__shared_ptr_emplaceI15DocumentHandlerNS_9allocatorIS1_EEED0Ev, symObjAddr: 0x2140, symBinAddr: 0xDECC, symSize: 0x24 }
  - { offset: 0x34373, size: 0x8, addend: 0x0, symName: __ZNSt3__120__shared_ptr_emplaceI15DocumentHandlerNS_9allocatorIS1_EEE16__on_zero_sharedEv, symObjAddr: 0x2164, symBinAddr: 0xDEF0, symSize: 0x64 }
  - { offset: 0x34669, size: 0x8, addend: 0x0, symName: __ZNSt3__120__shared_ptr_emplaceI15DocumentHandlerNS_9allocatorIS1_EEE21__on_zero_shared_weakEv, symObjAddr: 0x21C8, symBinAddr: 0xDF54, symSize: 0x4 }
  - { offset: 0x3469D, size: 0x8, addend: 0x0, symName: __ZNSt3__120__shared_ptr_emplaceI15DocumentHandlerNS_9allocatorIS1_EEE21__on_zero_shared_weakEv, symObjAddr: 0x21C8, symBinAddr: 0xDF54, symSize: 0x4 }
  - { offset: 0x346C2, size: 0x8, addend: 0x0, symName: __ZNSt3__120__shared_ptr_emplaceI15DocumentHandlerNS_9allocatorIS1_EEE21__on_zero_shared_weakEv, symObjAddr: 0x21C8, symBinAddr: 0xDF54, symSize: 0x4 }
  - { offset: 0x346E7, size: 0x8, addend: 0x0, symName: __ZNSt3__120__shared_ptr_emplaceI15DocumentHandlerNS_9allocatorIS1_EEE21__on_zero_shared_weakEv, symObjAddr: 0x21C8, symBinAddr: 0xDF54, symSize: 0x4 }
  - { offset: 0x34717, size: 0x8, addend: 0x0, symName: __ZNSt3__120__shared_ptr_emplaceI15DocumentHandlerNS_9allocatorIS1_EEE21__on_zero_shared_weakEv, symObjAddr: 0x21C8, symBinAddr: 0xDF54, symSize: 0x4 }
  - { offset: 0x34741, size: 0x8, addend: 0x0, symName: __ZNSt3__120__shared_ptr_emplaceI15DocumentHandlerNS_9allocatorIS1_EEE21__on_zero_shared_weakEv, symObjAddr: 0x21C8, symBinAddr: 0xDF54, symSize: 0x4 }
  - { offset: 0x34789, size: 0x8, addend: 0x0, symName: __ZNSt3__120__shared_ptr_emplaceI8DocumentNS_9allocatorIS1_EEED1Ev, symObjAddr: 0x21CC, symBinAddr: 0xDF58, symSize: 0x14 }
  - { offset: 0x347AD, size: 0x8, addend: 0x0, symName: __ZNSt3__120__shared_ptr_emplaceI8DocumentNS_9allocatorIS1_EEED1Ev, symObjAddr: 0x21CC, symBinAddr: 0xDF58, symSize: 0x14 }
  - { offset: 0x347E4, size: 0x8, addend: 0x0, symName: __ZNSt3__120__shared_ptr_emplaceI8DocumentNS_9allocatorIS1_EEED0Ev, symObjAddr: 0x21E0, symBinAddr: 0xDF6C, symSize: 0x24 }
  - { offset: 0x348B0, size: 0x8, addend: 0x0, symName: __ZNSt3__120__shared_ptr_emplaceI8DocumentNS_9allocatorIS1_EEE16__on_zero_sharedEv, symObjAddr: 0x2204, symBinAddr: 0xDF90, symSize: 0xC }
  - { offset: 0x348DA, size: 0x8, addend: 0x0, symName: __ZNSt3__120__shared_ptr_emplaceI8DocumentNS_9allocatorIS1_EEE16__on_zero_sharedEv, symObjAddr: 0x2204, symBinAddr: 0xDF90, symSize: 0xC }
  - { offset: 0x348FA, size: 0x8, addend: 0x0, symName: __ZNSt3__120__shared_ptr_emplaceI8DocumentNS_9allocatorIS1_EEE16__on_zero_sharedEv, symObjAddr: 0x2204, symBinAddr: 0xDF90, symSize: 0xC }
  - { offset: 0x3491A, size: 0x8, addend: 0x0, symName: __ZNSt3__120__shared_ptr_emplaceI8DocumentNS_9allocatorIS1_EEE16__on_zero_sharedEv, symObjAddr: 0x2204, symBinAddr: 0xDF90, symSize: 0xC }
  - { offset: 0x34946, size: 0x8, addend: 0x0, symName: __ZNSt3__120__shared_ptr_emplaceI8DocumentNS_9allocatorIS1_EEE21__on_zero_shared_weakEv, symObjAddr: 0x2210, symBinAddr: 0xDF9C, symSize: 0x4 }
  - { offset: 0x3497A, size: 0x8, addend: 0x0, symName: __ZNSt3__120__shared_ptr_emplaceI8DocumentNS_9allocatorIS1_EEE21__on_zero_shared_weakEv, symObjAddr: 0x2210, symBinAddr: 0xDF9C, symSize: 0x4 }
  - { offset: 0x3499F, size: 0x8, addend: 0x0, symName: __ZNSt3__120__shared_ptr_emplaceI8DocumentNS_9allocatorIS1_EEE21__on_zero_shared_weakEv, symObjAddr: 0x2210, symBinAddr: 0xDF9C, symSize: 0x4 }
  - { offset: 0x349C4, size: 0x8, addend: 0x0, symName: __ZNSt3__120__shared_ptr_emplaceI8DocumentNS_9allocatorIS1_EEE21__on_zero_shared_weakEv, symObjAddr: 0x2210, symBinAddr: 0xDF9C, symSize: 0x4 }
  - { offset: 0x349F5, size: 0x8, addend: 0x0, symName: __ZNSt3__120__shared_ptr_emplaceI8DocumentNS_9allocatorIS1_EEE21__on_zero_shared_weakEv, symObjAddr: 0x2210, symBinAddr: 0xDF9C, symSize: 0x4 }
  - { offset: 0x34A20, size: 0x8, addend: 0x0, symName: __ZNSt3__120__shared_ptr_emplaceI8DocumentNS_9allocatorIS1_EEE21__on_zero_shared_weakEv, symObjAddr: 0x2210, symBinAddr: 0xDF9C, symSize: 0x4 }
  - { offset: 0x34ABA, size: 0x8, addend: 0x0, symName: __ZNSt3__120__shared_ptr_emplaceI7XojPageNS_9allocatorIS1_EEED1Ev, symObjAddr: 0x22BC, symBinAddr: 0xE048, symSize: 0x14 }
  - { offset: 0x34ADE, size: 0x8, addend: 0x0, symName: __ZNSt3__120__shared_ptr_emplaceI7XojPageNS_9allocatorIS1_EEED1Ev, symObjAddr: 0x22BC, symBinAddr: 0xE048, symSize: 0x14 }
  - { offset: 0x34B15, size: 0x8, addend: 0x0, symName: __ZNSt3__120__shared_ptr_emplaceI7XojPageNS_9allocatorIS1_EEED0Ev, symObjAddr: 0x22D0, symBinAddr: 0xE05C, symSize: 0x24 }
  - { offset: 0x34BE1, size: 0x8, addend: 0x0, symName: __ZNSt3__120__shared_ptr_emplaceI7XojPageNS_9allocatorIS1_EEE16__on_zero_sharedEv, symObjAddr: 0x22F4, symBinAddr: 0xE080, symSize: 0xC }
  - { offset: 0x34C0B, size: 0x8, addend: 0x0, symName: __ZNSt3__120__shared_ptr_emplaceI7XojPageNS_9allocatorIS1_EEE16__on_zero_sharedEv, symObjAddr: 0x22F4, symBinAddr: 0xE080, symSize: 0xC }
  - { offset: 0x34C2B, size: 0x8, addend: 0x0, symName: __ZNSt3__120__shared_ptr_emplaceI7XojPageNS_9allocatorIS1_EEE16__on_zero_sharedEv, symObjAddr: 0x22F4, symBinAddr: 0xE080, symSize: 0xC }
  - { offset: 0x34C4B, size: 0x8, addend: 0x0, symName: __ZNSt3__120__shared_ptr_emplaceI7XojPageNS_9allocatorIS1_EEE16__on_zero_sharedEv, symObjAddr: 0x22F4, symBinAddr: 0xE080, symSize: 0xC }
  - { offset: 0x34C77, size: 0x8, addend: 0x0, symName: __ZNSt3__120__shared_ptr_emplaceI7XojPageNS_9allocatorIS1_EEE21__on_zero_shared_weakEv, symObjAddr: 0x2300, symBinAddr: 0xE08C, symSize: 0x4 }
  - { offset: 0x34CAB, size: 0x8, addend: 0x0, symName: __ZNSt3__120__shared_ptr_emplaceI7XojPageNS_9allocatorIS1_EEE21__on_zero_shared_weakEv, symObjAddr: 0x2300, symBinAddr: 0xE08C, symSize: 0x4 }
  - { offset: 0x34CD0, size: 0x8, addend: 0x0, symName: __ZNSt3__120__shared_ptr_emplaceI7XojPageNS_9allocatorIS1_EEE21__on_zero_shared_weakEv, symObjAddr: 0x2300, symBinAddr: 0xE08C, symSize: 0x4 }
  - { offset: 0x34CF5, size: 0x8, addend: 0x0, symName: __ZNSt3__120__shared_ptr_emplaceI7XojPageNS_9allocatorIS1_EEE21__on_zero_shared_weakEv, symObjAddr: 0x2300, symBinAddr: 0xE08C, symSize: 0x4 }
  - { offset: 0x34D26, size: 0x8, addend: 0x0, symName: __ZNSt3__120__shared_ptr_emplaceI7XojPageNS_9allocatorIS1_EEE21__on_zero_shared_weakEv, symObjAddr: 0x2300, symBinAddr: 0xE08C, symSize: 0x4 }
  - { offset: 0x34D51, size: 0x8, addend: 0x0, symName: __ZNSt3__120__shared_ptr_emplaceI7XojPageNS_9allocatorIS1_EEE21__on_zero_shared_weakEv, symObjAddr: 0x2300, symBinAddr: 0xE08C, symSize: 0x4 }
  - { offset: 0x353AF, size: 0x8, addend: 0x0, symName: __ZNSt3__112__hash_tableINS_17__hash_value_typeIPvNS_10unique_ptrI17PonyNotesDocumentNS_14default_deleteIS4_EEEEEENS_22__unordered_map_hasherIS2_S8_NS_4hashIS2_EENS_8equal_toIS2_EELb1EEENS_21__unordered_map_equalIS2_S8_SD_SB_Lb1EEENS_9allocatorIS8_EEE11__do_rehashILb1EEEvm, symObjAddr: 0x2668, symBinAddr: 0xE3F4, symSize: 0x15C }
  - { offset: 0x3587B, size: 0x8, addend: 0x0, symName: __ZNSt3__112basic_stringIcNS_11char_traitsIcEENS_9allocatorIcEEE6appendB8ne180100IPKcLi0EEERS5_T_SA_, symObjAddr: 0x27C4, symBinAddr: 0xE550, symSize: 0x37C }
  - { offset: 0x35890, size: 0x8, addend: 0x0, symName: __ZNSt3__110unique_ptrINS_11__hash_nodeINS_17__hash_value_typeIPvNS0_I17PonyNotesDocumentNS_14default_deleteIS4_EEEEEES3_EENS_22__hash_node_destructorINS_9allocatorIS9_EEEEED1B8ne180100Ev, symObjAddr: 0x2618, symBinAddr: 0xE3A4, symSize: 0x50 }
  - { offset: 0x360C6, size: 0x8, addend: 0x0, symName: __ZNKSt3__112basic_stringIcNS_11char_traitsIcEENS_9allocatorIcEEE20__throw_length_errorB8ne180100Ev, symObjAddr: 0x2B40, symBinAddr: 0xE8CC, symSize: 0x14 }
  - { offset: 0x360F0, size: 0x8, addend: 0x0, symName: __ZNSt3__120__throw_length_errorB8ne180100EPKc, symObjAddr: 0x2B54, symBinAddr: 0xE8E0, symSize: 0x50 }
  - { offset: 0x360FB, size: 0x8, addend: 0x0, symName: __ZNSt12length_errorC1B8ne180100EPKc, symObjAddr: 0x2BA4, symBinAddr: 0xE930, symSize: 0x24 }
  - { offset: 0x361A1, size: 0x8, addend: 0x0, symName: __ZNSt3__120__shared_ptr_pointerIP8DocumentNS_14default_deleteIS1_EENS_9allocatorIS1_EEED1Ev, symObjAddr: 0x2BC8, symBinAddr: 0xE954, symSize: 0x4 }
  - { offset: 0x361C5, size: 0x8, addend: 0x0, symName: __ZNSt3__120__shared_ptr_pointerIP8DocumentNS_14default_deleteIS1_EENS_9allocatorIS1_EEED1Ev, symObjAddr: 0x2BC8, symBinAddr: 0xE954, symSize: 0x4 }
  - { offset: 0x361FC, size: 0x8, addend: 0x0, symName: __ZNSt3__120__shared_ptr_pointerIP8DocumentNS_14default_deleteIS1_EENS_9allocatorIS1_EEED0Ev, symObjAddr: 0x2BCC, symBinAddr: 0xE958, symSize: 0x14 }
  - { offset: 0x36263, size: 0x8, addend: 0x0, symName: __ZNSt3__120__shared_ptr_pointerIP8DocumentNS_14default_deleteIS1_EENS_9allocatorIS1_EEE16__on_zero_sharedEv, symObjAddr: 0x2BE0, symBinAddr: 0xE96C, symSize: 0x18 }
  - { offset: 0x3630D, size: 0x8, addend: 0x0, symName: __ZNKSt3__120__shared_ptr_pointerIP8DocumentNS_14default_deleteIS1_EENS_9allocatorIS1_EEE13__get_deleterERKSt9type_info, symObjAddr: 0x2BF8, symBinAddr: 0xE984, symSize: 0x64 }
  - { offset: 0x363FD, size: 0x8, addend: 0x0, symName: __ZNSt3__120__shared_ptr_pointerIP8DocumentNS_14default_deleteIS1_EENS_9allocatorIS1_EEE21__on_zero_shared_weakEv, symObjAddr: 0x2C5C, symBinAddr: 0xE9E8, symSize: 0x4 }
  - { offset: 0x36431, size: 0x8, addend: 0x0, symName: __ZNSt3__120__shared_ptr_pointerIP8DocumentNS_14default_deleteIS1_EENS_9allocatorIS1_EEE21__on_zero_shared_weakEv, symObjAddr: 0x2C5C, symBinAddr: 0xE9E8, symSize: 0x4 }
  - { offset: 0x36455, size: 0x8, addend: 0x0, symName: __ZNSt3__120__shared_ptr_pointerIP8DocumentNS_14default_deleteIS1_EENS_9allocatorIS1_EEE21__on_zero_shared_weakEv, symObjAddr: 0x2C5C, symBinAddr: 0xE9E8, symSize: 0x4 }
  - { offset: 0x36484, size: 0x8, addend: 0x0, symName: __ZNSt3__120__shared_ptr_pointerIP8DocumentNS_14default_deleteIS1_EENS_9allocatorIS1_EEE21__on_zero_shared_weakEv, symObjAddr: 0x2C5C, symBinAddr: 0xE9E8, symSize: 0x4 }
  - { offset: 0x364AD, size: 0x8, addend: 0x0, symName: __ZNSt3__120__shared_ptr_pointerIP8DocumentNS_14default_deleteIS1_EENS_9allocatorIS1_EEE21__on_zero_shared_weakEv, symObjAddr: 0x2C5C, symBinAddr: 0xE9E8, symSize: 0x4 }
  - { offset: 0x3BDEC, size: 0x8, addend: 0x0, symName: __ZN8cpptrace2v16detail18open_mach_o_cachedERKNSt3__112basic_stringIcNS2_11char_traitsIcEENS2_9allocatorIcEEEE, symObjAddr: 0x4F9C, symBinAddr: 0x74840, symSize: 0x5B8 }
  - { offset: 0x3BE18, size: 0x8, addend: 0x0, symName: __ZZN8cpptrace2v16detail18open_mach_o_cachedERKNSt3__112basic_stringIcNS2_11char_traitsIcEENS2_9allocatorIcEEEEE1m, symObjAddr: 0xB3A0, symBinAddr: 0xB0F80, symSize: 0x0 }
  - { offset: 0x3BE2F, size: 0x8, addend: 0x0, symName: __ZZN8cpptrace2v16detail18open_mach_o_cachedERKNSt3__112basic_stringIcNS2_11char_traitsIcEENS2_9allocatorIcEEEEE5cache, symObjAddr: 0x136920, symBinAddr: 0xB1130, symSize: 0x0 }
  - { offset: 0x3EBA7, size: 0x8, addend: 0x0, symName: __ZN8cpptrace2v16detail9is_mach_oEj, symObjAddr: 0x0, symBinAddr: 0x6FB84, symSize: 0x78 }
  - { offset: 0x3EE63, size: 0x8, addend: 0x0, symName: __ZN8cpptrace2v16detail14file_is_mach_oENS1_12cstring_viewE, symObjAddr: 0x78, symBinAddr: 0x6FBFC, symSize: 0xF8 }
  - { offset: 0x3F182, size: 0x8, addend: 0x0, symName: __ZN8cpptrace2v16detail10load_bytesIjLi0EEENS1_6ResultIT_NS1_14internal_errorEXLi0EEEEP7__sFILEx, symObjAddr: 0x180, symBinAddr: 0x6FCF4, symSize: 0x188 }
  - { offset: 0x3F7F6, size: 0x8, addend: 0x0, symName: __ZN8cpptrace2v16detail3log5debugIJPKcEEEvS5_DpOT_, symObjAddr: 0x71C4, symBinAddr: 0x768DC, symSize: 0xD0 }
  - { offset: 0x3FB63, size: 0x8, addend: 0x0, symName: __ZN8cpptrace2v16detail12is_fat_magicEj, symObjAddr: 0x354, symBinAddr: 0x6FEC8, symSize: 0x20 }
  - { offset: 0x3FB82, size: 0x8, addend: 0x0, symName: __ZN8cpptrace2v16detail11is_magic_64Ej, symObjAddr: 0x374, symBinAddr: 0x6FEE8, symSize: 0x20 }
  - { offset: 0x3FBB0, size: 0x8, addend: 0x0, symName: __ZN8cpptrace2v16detail17should_swap_bytesEj, symObjAddr: 0x394, symBinAddr: 0x6FF08, symSize: 0x24 }
  - { offset: 0x3FBCF, size: 0x8, addend: 0x0, symName: __ZN8cpptrace2v16detail16swap_mach_headerER14mach_header_64, symObjAddr: 0x3B8, symBinAddr: 0x6FF2C, symSize: 0x8 }
  - { offset: 0x3FC07, size: 0x8, addend: 0x0, symName: __ZN8cpptrace2v16detail16swap_mach_headerER11mach_header, symObjAddr: 0x3C0, symBinAddr: 0x6FF34, symSize: 0x8 }
  - { offset: 0x3FC3F, size: 0x8, addend: 0x0, symName: __ZN8cpptrace2v16detail20swap_segment_commandER18segment_command_64, symObjAddr: 0x3C8, symBinAddr: 0x6FF3C, symSize: 0x8 }
  - { offset: 0x3FC77, size: 0x8, addend: 0x0, symName: __ZN8cpptrace2v16detail20swap_segment_commandER15segment_command, symObjAddr: 0x3D0, symBinAddr: 0x6FF44, symSize: 0x8 }
  - { offset: 0x3FCAF, size: 0x8, addend: 0x0, symName: __ZN8cpptrace2v16detail10swap_nlistER5nlist, symObjAddr: 0x3D8, symBinAddr: 0x6FF4C, symSize: 0xC }
  - { offset: 0x3FCEC, size: 0x8, addend: 0x0, symName: __ZN8cpptrace2v16detail10swap_nlistER8nlist_64, symObjAddr: 0x3E4, symBinAddr: 0x6FF58, symSize: 0xC }
  - { offset: 0x40D88, size: 0x8, addend: 0x0, symName: __ZN8cpptrace2v16detail12macho_is_fatENS1_12cstring_viewE, symObjAddr: 0x4D1C, symBinAddr: 0x745C0, symSize: 0x1A8 }
  - { offset: 0x41B32, size: 0x8, addend: 0x0, symName: __ZN8cpptrace2v18microfmt6detail6formatINSt3__120back_insert_iteratorINS4_12basic_stringIcNS4_11char_traitsIcEENS4_9allocatorIcEEEEEEPKcEEvT_T0_SG_RKSt16initializer_listINS2_12format_valueEE, symObjAddr: 0x7294, symBinAddr: 0x769AC, symSize: 0x11C }
  - { offset: 0x41DA6, size: 0x8, addend: 0x0, symName: __ZN8cpptrace2v18microfmt6detail9to_stringEyRKNS2_14format_optionsE, symObjAddr: 0x7A4C, symBinAddr: 0x77164, symSize: 0x258 }
  - { offset: 0x42678, size: 0x8, addend: 0x0, symName: __ZN8cpptrace2v18microfmt6detail8do_writeINSt3__120back_insert_iteratorINS4_12basic_stringIcNS4_11char_traitsIcEENS4_9allocatorIcEEEEEEPKcEEvT_T0_SG_RKNS2_14format_optionsE, symObjAddr: 0x7970, symBinAddr: 0x77088, symSize: 0xDC }
  - { offset: 0x53569, size: 0x8, addend: 0x0, symName: '__ZNSt3__111__introsortINS_17_ClassicAlgPolicyERZN8cpptrace2v16detail6mach_o12symbol_tableEvE3$_0PNS5_12symbol_entryELb0EEEvT1_SA_T0_NS_15iterator_traitsISA_E15difference_typeEb', symObjAddr: 0x5C80, symBinAddr: 0x75438, symSize: 0xC4C }
  - { offset: 0x55D52, size: 0x8, addend: 0x0, symName: '__ZNSt3__127__insertion_sort_incompleteB8ne180100INS_17_ClassicAlgPolicyERZN8cpptrace2v16detail6mach_o12symbol_tableEvE3$_0PNS5_12symbol_entryEEEbT1_SA_T0_', symObjAddr: 0x6AE0, symBinAddr: 0x76298, symSize: 0x38C }
  - { offset: 0x5C860, size: 0x8, addend: 0x0, symName: '__ZNSt3__17__sort3B8ne180100INS_17_ClassicAlgPolicyERZN8cpptrace2v16detail6mach_o12symbol_tableEvE3$_0PNS5_12symbol_entryEEEjT1_SA_SA_T0_', symObjAddr: 0x68CC, symBinAddr: 0x76084, symSize: 0x214 }
  - { offset: 0x5D1D3, size: 0x8, addend: 0x0, symName: '__ZNSt3__17__sort4B8ne180100INS_17_ClassicAlgPolicyERZN8cpptrace2v16detail6mach_o12symbol_tableEvE3$_0PNS5_12symbol_entryEEEvT1_SA_SA_SA_T0_', symObjAddr: 0x6E6C, symBinAddr: 0x76624, symSize: 0x19C }
  - { offset: 0x612FC, size: 0x8, addend: 0x0, symName: __ZN8cpptrace2v16detail6mach_o13load_fat_machEv, symObjAddr: 0x60C, symBinAddr: 0x70180, symSize: 0x59C }
  - { offset: 0x61324, size: 0x8, addend: 0x0, symName: __ZZN8cpptrace2v16detail6mach_o13load_fat_machEvE3mhp, symObjAddr: 0xB36E, symBinAddr: 0xB1050, symSize: 0x0 }
  - { offset: 0x642E9, size: 0x8, addend: 0x0, symName: __ZN8cpptrace2v16detail14internal_errorC1IJEEEPKcDpOT_, symObjAddr: 0x4F4, symBinAddr: 0x70068, symSize: 0x90 }
  - { offset: 0x645EC, size: 0x8, addend: 0x0, symName: __ZN8cpptrace2v16detail14internal_errorD1Ev, symObjAddr: 0x584, symBinAddr: 0x700F8, symSize: 0x3C }
  - { offset: 0x64767, size: 0x8, addend: 0x0, symName: __ZN8cpptrace2v16detail6ResultIjNS1_14internal_errorELi0EED1Ev, symObjAddr: 0x308, symBinAddr: 0x6FE7C, symSize: 0x4C }
  - { offset: 0x64B32, size: 0x8, addend: 0x0, symName: __ZNK8cpptrace2v16detail6mach_o16symtab_info_data10get_stringEm, symObjAddr: 0x3F0, symBinAddr: 0x6FF64, symSize: 0x104 }
  - { offset: 0x651C3, size: 0x8, addend: 0x0, symName: __ZN8cpptrace2v16detail6mach_o4loadEv, symObjAddr: 0x5C0, symBinAddr: 0x70134, symSize: 0x4C }
  - { offset: 0x6520E, size: 0x8, addend: 0x0, symName: __ZN8cpptrace2v16detail6mach_o9load_machILm64EEENS1_6ResultINS1_9monostateENS1_14internal_errorELi0EEEv, symObjAddr: 0xBA8, symBinAddr: 0x7071C, symSize: 0x344 }
  - { offset: 0x65D30, size: 0x8, addend: 0x0, symName: __ZN8cpptrace2v16detail6mach_o9load_machILm32EEENS1_6ResultINS1_9monostateENS1_14internal_errorELi0EEEv, symObjAddr: 0xEEC, symBinAddr: 0x70A60, symSize: 0x344 }
  - { offset: 0x66FE1, size: 0x8, addend: 0x0, symName: __ZN8cpptrace2v16detail9base_file4readI10fat_headerLi0EEENS1_6ResultIT_NS1_14internal_errorEXLi0EEEEx, symObjAddr: 0x47C4, symBinAddr: 0x74100, symSize: 0xA8 }
  - { offset: 0x672FE, size: 0x8, addend: 0x0, symName: __ZN8cpptrace2v16detail6ResultINS1_9monostateENS1_14internal_errorELi0EEC1ERKS4_, symObjAddr: 0x486C, symBinAddr: 0x741A8, symSize: 0xD8 }
  - { offset: 0x675DD, size: 0x8, addend: 0x0, symName: __ZN8cpptrace2v16detail9base_file4readI8fat_archLi0EEENS1_6ResultIT_NS1_14internal_errorEXLi0EEEEx, symObjAddr: 0x496C, symBinAddr: 0x742A8, symSize: 0xB4 }
  - { offset: 0x67932, size: 0x8, addend: 0x0, symName: __ZN8cpptrace2v16detail9base_file4readIjLi0EEENS1_6ResultIT_NS1_14internal_errorEXLi0EEEEx, symObjAddr: 0x15F0, symBinAddr: 0x71164, symSize: 0xA8 }
  - { offset: 0x682D3, size: 0x8, addend: 0x0, symName: __ZN8cpptrace2v16detail9base_file4readI14mach_header_64Li0EEENS1_6ResultIT_NS1_14internal_errorEXLi0EEEEx, symObjAddr: 0x7E5C, symBinAddr: 0x773BC, symSize: 0xAC }
  - { offset: 0x68601, size: 0x8, addend: 0x0, symName: __ZN8cpptrace2v16detail9base_file4readI12load_commandLi0EEENS1_6ResultIT_NS1_14internal_errorEXLi0EEEEx, symObjAddr: 0x7F08, symBinAddr: 0x77468, symSize: 0xA8 }
  - { offset: 0x6894D, size: 0x8, addend: 0x0, symName: __ZN8cpptrace2v16detail9base_file4readI11mach_headerLi0EEENS1_6ResultIT_NS1_14internal_errorEXLi0EEEEx, symObjAddr: 0x820C, symBinAddr: 0x776C0, symSize: 0xB8 }
  - { offset: 0x68BCE, size: 0x8, addend: 0x0, symName: __ZN8cpptrace2v16detail9base_file4readI11mach_headerLi0EEENS1_6ResultIT_NS1_14internal_errorEXLi0EEEEx, symObjAddr: 0x820C, symBinAddr: 0x776C0, symSize: 0xB8 }
  - { offset: 0x69549, size: 0x8, addend: 0x0, symName: __ZN8cpptrace2v16detail6mach_o4openENSt3__110unique_ptrINS1_9base_fileENS3_14default_deleteIS5_EEEE, symObjAddr: 0x1230, symBinAddr: 0x70DA4, symSize: 0x3C0 }
  - { offset: 0x6A541, size: 0x8, addend: 0x0, symName: __ZN8cpptrace2v16detail6ResultINS1_6mach_oENS1_14internal_errorELi0EEC1ERKS4_, symObjAddr: 0x1698, symBinAddr: 0x7120C, symSize: 0xD8 }
  - { offset: 0x6A80F, size: 0x8, addend: 0x0, symName: __ZN8cpptrace2v16detail14internal_errorC1IJNS1_11string_viewEEEEPKcDpOT_, symObjAddr: 0x1770, symBinAddr: 0x712E4, symSize: 0xD4 }
  - { offset: 0x6AB1A, size: 0x8, addend: 0x0, symName: __ZN8cpptrace2v16detail6mach_oD2Ev, symObjAddr: 0x5680, symBinAddr: 0x74F24, symSize: 0xCC }
  - { offset: 0x6B3FB, size: 0x8, addend: 0x0, symName: __ZN8cpptrace2v16detail6ResultIjNS1_14internal_errorELi0EEC1ERKS3_, symObjAddr: 0x83E8, symBinAddr: 0x77850, symSize: 0xD8 }
  - { offset: 0x6B9A1, size: 0x8, addend: 0x0, symName: __ZN8cpptrace2v16detail6ResultINS1_6mach_oENS1_14internal_errorELi0EEC2EOS5_, symObjAddr: 0x70A8, symBinAddr: 0x767C0, symSize: 0x11C }
  - { offset: 0x6BD9F, size: 0x8, addend: 0x0, symName: __ZN8cpptrace2v16detail6mach_o4openENS1_12cstring_viewE, symObjAddr: 0x1890, symBinAddr: 0x713B8, symSize: 0x20C }
  - { offset: 0x6C99E, size: 0x8, addend: 0x0, symName: __ZN8cpptrace2v16detail14internal_errorC1IJRNS1_12cstring_viewEEEEPKcDpOT_, symObjAddr: 0x1A9C, symBinAddr: 0x715C4, symSize: 0xD4 }
  - { offset: 0x6CCC8, size: 0x8, addend: 0x0, symName: __ZN8cpptrace2v16detail6ResultINS1_4fileENS1_14internal_errorELi0EED1Ev, symObjAddr: 0x1B70, symBinAddr: 0x71698, symSize: 0x94 }
  - { offset: 0x6D3DE, size: 0x8, addend: 0x0, symName: __ZN8cpptrace2v16detail6mach_o4openENS1_4spanIKcEE, symObjAddr: 0x1C04, symBinAddr: 0x7172C, symSize: 0xC4 }
  - { offset: 0x6DA66, size: 0x8, addend: 0x0, symName: __ZN8cpptrace2v16detail6mach_o15get_text_vmaddrEv, symObjAddr: 0x1CC8, symBinAddr: 0x717F0, symSize: 0x29C }
  - { offset: 0x6E614, size: 0x8, addend: 0x0, symName: __ZNK8cpptrace2v16detail6mach_o20load_segment_commandILm64EEENS1_6ResultI18segment_command_64NS1_14internal_errorELi0EEEj, symObjAddr: 0x1F64, symBinAddr: 0x71A8C, symSize: 0x130 }
  - { offset: 0x6E988, size: 0x8, addend: 0x0, symName: __ZNK8cpptrace2v16detail6mach_o20load_segment_commandILm32EEENS1_6ResultI18segment_command_64NS1_14internal_errorELi0EEEj, symObjAddr: 0x2094, symBinAddr: 0x71BBC, symSize: 0x134 }
  - { offset: 0x6ECFC, size: 0x8, addend: 0x0, symName: __ZN8cpptrace2v16detail6ResultI18segment_command_64NS1_14internal_errorELi0EED1Ev, symObjAddr: 0x21C8, symBinAddr: 0x71CF0, symSize: 0x4C }
  - { offset: 0x6EF45, size: 0x8, addend: 0x0, symName: __ZN8cpptrace2v16detail9base_file4readI18segment_command_64Li0EEENS1_6ResultIT_NS1_14internal_errorEXLi0EEEEx, symObjAddr: 0x84C0, symBinAddr: 0x77928, symSize: 0xF4 }
  - { offset: 0x6F273, size: 0x8, addend: 0x0, symName: __ZN8cpptrace2v16detail6ResultI18segment_command_64NS1_14internal_errorELi0EEC1ERKS4_, symObjAddr: 0x85B4, symBinAddr: 0x77A1C, symSize: 0xD8 }
  - { offset: 0x6F5BB, size: 0x8, addend: 0x0, symName: __ZN8cpptrace2v16detail9base_file4readI15segment_commandLi0EEENS1_6ResultIT_NS1_14internal_errorEXLi0EEEEx, symObjAddr: 0x868C, symBinAddr: 0x77AF4, symSize: 0xF4 }
  - { offset: 0x6F8E9, size: 0x8, addend: 0x0, symName: __ZN8cpptrace2v16detail6ResultI15segment_commandNS1_14internal_errorELi0EED1Ev, symObjAddr: 0x8780, symBinAddr: 0x77BE8, symSize: 0x4C }
  - { offset: 0x6FAC1, size: 0x8, addend: 0x0, symName: __ZNK8cpptrace2v16detail6mach_o13get_fat_indexEv, symObjAddr: 0x2214, symBinAddr: 0x71D3C, symSize: 0x44 }
  - { offset: 0x6FB26, size: 0x8, addend: 0x0, symName: __ZNK8cpptrace2v16detail6mach_o14print_segmentsEv, symObjAddr: 0x2258, symBinAddr: 0x71D80, symSize: 0x24C }
  - { offset: 0x6FB8C, size: 0x8, addend: 0x0, symName: __ZNK8cpptrace2v16detail6mach_o14print_segmentsEv, symObjAddr: 0x2258, symBinAddr: 0x71D80, symSize: 0x24C }
  - { offset: 0x70518, size: 0x8, addend: 0x0, symName: __ZN8cpptrace2v16detail6mach_o13get_pc_rangesEv, symObjAddr: 0x24A4, symBinAddr: 0x71FCC, symSize: 0x378 }
  - { offset: 0x71A06, size: 0x8, addend: 0x0, symName: __ZN8cpptrace2v16detail6mach_o15get_symtab_infoEv, symObjAddr: 0x281C, symBinAddr: 0x72344, symSize: 0x300 }
  - { offset: 0x72F0C, size: 0x8, addend: 0x0, symName: __ZNK8cpptrace2v16detail6mach_o25load_symbol_table_commandEj, symObjAddr: 0x2B1C, symBinAddr: 0x72644, symSize: 0xE8 }
  - { offset: 0x73277, size: 0x8, addend: 0x0, symName: __ZNK8cpptrace2v16detail6mach_o17load_string_tableEjj, symObjAddr: 0x2C04, symBinAddr: 0x7272C, symSize: 0x124 }
  - { offset: 0x73919, size: 0x8, addend: 0x0, symName: __ZN8cpptrace2v16detail8optionalINS1_6mach_o16symtab_info_dataELi0EE4swapERS5_, symObjAddr: 0x88A4, symBinAddr: 0x77D0C, symSize: 0x238 }
  - { offset: 0x742C7, size: 0x8, addend: 0x0, symName: __ZN8cpptrace2v16detail6ResultINSt3__16vectorIcNS3_9allocatorIcEEEENS1_14internal_errorELi0EED1Ev, symObjAddr: 0x2D28, symBinAddr: 0x72850, symSize: 0x60 }
  - { offset: 0x74762, size: 0x8, addend: 0x0, symName: __ZN8cpptrace2v16detail9base_file4readI14symtab_commandLi0EEENS1_6ResultIT_NS1_14internal_errorEXLi0EEEEx, symObjAddr: 0x4AB8, symBinAddr: 0x7435C, symSize: 0xB4 }
  - { offset: 0x74A7F, size: 0x8, addend: 0x0, symName: __ZN8cpptrace2v16detail6ResultI14symtab_commandNS1_14internal_errorELi0EEC1ERKS4_, symObjAddr: 0x4B6C, symBinAddr: 0x74410, symSize: 0xD8 }
  - { offset: 0x74EE9, size: 0x8, addend: 0x0, symName: __ZN8cpptrace2v16detail6ResultINSt3__16vectorIcNS3_9allocatorIcEEEENS1_14internal_errorELi0EEC1ERKS8_, symObjAddr: 0x4C44, symBinAddr: 0x744E8, symSize: 0xD8 }
  - { offset: 0x751B1, size: 0x8, addend: 0x0, symName: __ZNK8cpptrace2v16detail6mach_o24print_symbol_table_entryERK8nlist_64PKcmm, symObjAddr: 0x2DD4, symBinAddr: 0x728B0, symSize: 0xFC }
  - { offset: 0x7538C, size: 0x8, addend: 0x0, symName: __ZN8cpptrace2v16detail6mach_o18print_symbol_tableEv, symObjAddr: 0x2ED0, symBinAddr: 0x729AC, symSize: 0x43C }
  - { offset: 0x75F35, size: 0x8, addend: 0x0, symName: __ZNK8cpptrace2v16detail6mach_o17load_symtab_entryILm32EEENS1_6ResultI8nlist_64NS1_14internal_errorELi0EEEjm, symObjAddr: 0x330C, symBinAddr: 0x72DE8, symSize: 0xF8 }
  - { offset: 0x762D7, size: 0x8, addend: 0x0, symName: __ZNK8cpptrace2v16detail6mach_o17load_symtab_entryILm64EEENS1_6ResultI8nlist_64NS1_14internal_errorELi0EEEjm, symObjAddr: 0x3404, symBinAddr: 0x72EE0, symSize: 0xF4 }
  - { offset: 0x7683E, size: 0x8, addend: 0x0, symName: __ZN8cpptrace2v16detail9base_file4readI5nlistLi0EEENS1_6ResultIT_NS1_14internal_errorEXLi0EEEEx, symObjAddr: 0x8ADC, symBinAddr: 0x77F44, symSize: 0xB4 }
  - { offset: 0x76B6B, size: 0x8, addend: 0x0, symName: __ZN8cpptrace2v16detail6ResultI8nlist_64NS1_14internal_errorELi0EEC1ERKS4_, symObjAddr: 0x8B90, symBinAddr: 0x77FF8, symSize: 0xD8 }
  - { offset: 0x76F2E, size: 0x8, addend: 0x0, symName: __ZN8cpptrace2v16detail9base_file4readI8nlist_64Li0EEENS1_6ResultIT_NS1_14internal_errorEXLi0EEEEx, symObjAddr: 0x8D8C, symBinAddr: 0x781A8, symSize: 0xA8 }
  - { offset: 0x77BAC, size: 0x8, addend: 0x0, symName: __ZN8cpptrace2v16detail6mach_o13get_debug_mapEv, symObjAddr: 0x3544, symBinAddr: 0x72FD4, symSize: 0x6CC }
  - { offset: 0x7A903, size: 0x8, addend: 0x0, symName: __ZNSt3__112__hash_tableINS_17__hash_value_typeINS_12basic_stringIcNS_11char_traitsIcEENS_9allocatorIcEEEENS_6vectorIN8cpptrace2v16detail6mach_o15debug_map_entryENS5_ISD_EEEEEENS_22__unordered_map_hasherIS7_SG_NS_4hashIS7_EENS_8equal_toIS7_EELb1EEENS_21__unordered_map_equalIS7_SG_SL_SJ_Lb1EEENS5_ISG_EEED2Ev, symObjAddr: 0x8E34, symBinAddr: 0x78250, symSize: 0xB8 }
  - { offset: 0x7B045, size: 0x8, addend: 0x0, symName: __ZNSt3__112basic_stringIcNS_11char_traitsIcEENS_9allocatorIcEEE17__assign_externalEPKc, symObjAddr: 0x5958, symBinAddr: 0x7514C, symSize: 0x34 }
  - { offset: 0x7B0F1, size: 0x8, addend: 0x0, symName: __ZNSt3__112__hash_tableINS_17__hash_value_typeINS_12basic_stringIcNS_11char_traitsIcEENS_9allocatorIcEEEENS_6vectorIN8cpptrace2v16detail6mach_o15debug_map_entryENS5_ISD_EEEEEENS_22__unordered_map_hasherIS7_SG_NS_4hashIS7_EENS_8equal_toIS7_EELb1EEENS_21__unordered_map_equalIS7_SG_SL_SJ_Lb1EEENS5_ISG_EEE25__emplace_unique_key_argsIS7_JRKNS_21piecewise_construct_tENS_5tupleIJRKS7_EEENSV_IJEEEEEENS_4pairINS_15__hash_iteratorIPNS_11__hash_nodeISG_PvEEEEbEERKT_DpOT0_, symObjAddr: 0x8EEC, symBinAddr: 0x78308, symSize: 0x3BC }
  - { offset: 0x7BBD5, size: 0x8, addend: 0x0, symName: __ZNSt3__16vectorIN8cpptrace2v16detail6mach_o15debug_map_entryENS_9allocatorIS5_EEE21__push_back_slow_pathIS5_EEPS5_OT_, symObjAddr: 0x59A0, symBinAddr: 0x75180, symSize: 0x170 }
  - { offset: 0x7C983, size: 0x8, addend: 0x0, symName: __ZN8cpptrace2v16detail6mach_o12symbol_tableEv, symObjAddr: 0x3CA8, symBinAddr: 0x736A0, symSize: 0x750 }
  - { offset: 0x7FBF1, size: 0x8, addend: 0x0, symName: __ZNSt3__16vectorIN8cpptrace2v16detail6mach_o12symbol_entryENS_9allocatorIS5_EEE21__push_back_slow_pathIS5_EEPS5_OT_, symObjAddr: 0x5B24, symBinAddr: 0x752F0, symSize: 0x148 }
  - { offset: 0x80354, size: 0x8, addend: 0x0, symName: __ZNSt3__16vectorIN8cpptrace2v16detail6mach_o15debug_map_entryENS_9allocatorIS5_EEE21__push_back_slow_pathIS5_EEPS5_OT_, symObjAddr: 0x59A0, symBinAddr: 0x75180, symSize: 0x170 }
  - { offset: 0x805F8, size: 0x8, addend: 0x0, symName: __ZN8cpptrace2v16detail6mach_o13lookup_symbolEm, symObjAddr: 0x4468, symBinAddr: 0x73DF0, symSize: 0x188 }
  - { offset: 0x8131A, size: 0x8, addend: 0x0, symName: __ZN8cpptrace2v16detail6mach_o15print_debug_mapERKNSt3__113unordered_mapINS3_12basic_stringIcNS3_11char_traitsIcEENS3_9allocatorIcEEEENS3_6vectorINS2_15debug_map_entryENS8_ISC_EEEENS3_4hashISA_EENS3_8equal_toISA_EENS8_INS3_4pairIKSA_SE_EEEEEE, symObjAddr: 0x463C, symBinAddr: 0x73F78, symSize: 0x188 }
  - { offset: 0x81869, size: 0x8, addend: 0x0, symName: __ZN8cpptrace2v16detail6ResultI10fat_headerNS1_14internal_errorELi0EEC1ERKS4_, symObjAddr: 0x9BE4, symBinAddr: 0x78B9C, symSize: 0xD8 }
  - { offset: 0x81B56, size: 0x8, addend: 0x0, symName: __ZNK8cpptrace2v16detail6mach_o11should_swapEv, symObjAddr: 0x4944, symBinAddr: 0x74280, symSize: 0x28 }
  - { offset: 0x81BE4, size: 0x8, addend: 0x0, symName: __ZN8cpptrace2v16detail6ResultI8fat_archNS1_14internal_errorELi0EEC1ERKS4_, symObjAddr: 0x9CBC, symBinAddr: 0x78C74, symSize: 0xD8 }
  - { offset: 0x81FC9, size: 0x8, addend: 0x0, symName: __ZN8cpptrace2v16detail6ResultIbNS1_14internal_errorELi0EEC1ERKS3_, symObjAddr: 0x4EC4, symBinAddr: 0x74768, symSize: 0xD8 }
  - { offset: 0x82A33, size: 0x8, addend: 0x0, symName: __ZNSt3__112__hash_tableINS_17__hash_value_typeINS_12basic_stringIcNS_11char_traitsIcEENS_9allocatorIcEEEEN8cpptrace2v16detail6ResultINSA_6mach_oENSA_14internal_errorELi0EEEEENS_22__unordered_map_hasherIS7_SF_NS_4hashIS7_EENS_8equal_toIS7_EELb1EEENS_21__unordered_map_equalIS7_SF_SK_SI_Lb1EEENS5_ISF_EEE4findIS7_EENS_15__hash_iteratorIPNS_11__hash_nodeISF_PvEEEERKT_, symObjAddr: 0x9F24, symBinAddr: 0x78EDC, symSize: 0x180 }
  - { offset: 0x82D3E, size: 0x8, addend: 0x0, symName: __ZN8cpptrace2v16detail6ResultINS1_11maybe_ownedINS1_6mach_oEEENS1_14internal_errorELi0EEC1ERKS6_, symObjAddr: 0x9D94, symBinAddr: 0x78D4C, symSize: 0xD8 }
  - { offset: 0x83006, size: 0x8, addend: 0x0, symName: __ZNSt3__112__hash_tableINS_17__hash_value_typeINS_12basic_stringIcNS_11char_traitsIcEENS_9allocatorIcEEEEN8cpptrace2v16detail6ResultINSA_6mach_oENSA_14internal_errorELi0EEEEENS_22__unordered_map_hasherIS7_SF_NS_4hashIS7_EENS_8equal_toIS7_EELb1EEENS_21__unordered_map_equalIS7_SF_SK_SI_Lb1EEENS5_ISF_EEE25__emplace_unique_key_argsIS7_JNS_4pairIKS7_SE_EEEEENSR_INS_15__hash_iteratorIPNS_11__hash_nodeISF_PvEEEEbEERKT_DpOT0_, symObjAddr: 0xA0A4, symBinAddr: 0x7905C, symSize: 0x3BC }
  - { offset: 0x83A9F, size: 0x8, addend: 0x0, symName: __ZNSt3__14pairIKNS_12basic_stringIcNS_11char_traitsIcEENS_9allocatorIcEEEEN8cpptrace2v16detail6ResultINSA_6mach_oENSA_14internal_errorELi0EEEED1Ev, symObjAddr: 0x55B0, symBinAddr: 0x74E54, symSize: 0x74 }
  - { offset: 0x83DE4, size: 0x8, addend: 0x0, symName: __ZN8cpptrace2v16detail6ResultINS1_6mach_oENS1_14internal_errorELi0EED1Ev, symObjAddr: 0x5554, symBinAddr: 0x74DF8, symSize: 0x58 }
  - { offset: 0x8401F, size: 0x8, addend: 0x0, symName: __ZNSt3__113unordered_mapINS_12basic_stringIcNS_11char_traitsIcEENS_9allocatorIcEEEEN8cpptrace2v16detail6ResultINS9_6mach_oENS9_14internal_errorELi0EEENS_4hashIS6_EENS_8equal_toIS6_EENS4_INS_4pairIKS6_SD_EEEEED1B8ne180100Ev, symObjAddr: 0x55AC, symBinAddr: 0x74E50, symSize: 0x4 }
  - { offset: 0x8404B, size: 0x8, addend: 0x0, symName: __ZNSt3__113unordered_mapINS_12basic_stringIcNS_11char_traitsIcEENS_9allocatorIcEEEEN8cpptrace2v16detail6ResultINS9_6mach_oENS9_14internal_errorELi0EEENS_4hashIS6_EENS_8equal_toIS6_EENS4_INS_4pairIKS6_SD_EEEEED1B8ne180100Ev, symObjAddr: 0x55AC, symBinAddr: 0x74E50, symSize: 0x4 }
  - { offset: 0x84069, size: 0x8, addend: 0x0, symName: __ZNSt3__113unordered_mapINS_12basic_stringIcNS_11char_traitsIcEENS_9allocatorIcEEEEN8cpptrace2v16detail6ResultINS9_6mach_oENS9_14internal_errorELi0EEENS_4hashIS6_EENS_8equal_toIS6_EENS4_INS_4pairIKS6_SD_EEEEED1B8ne180100Ev, symObjAddr: 0x55AC, symBinAddr: 0x74E50, symSize: 0x4 }
  - { offset: 0x84089, size: 0x8, addend: 0x0, symName: __ZNSt3__113unordered_mapINS_12basic_stringIcNS_11char_traitsIcEENS_9allocatorIcEEEEN8cpptrace2v16detail6ResultINS9_6mach_oENS9_14internal_errorELi0EEENS_4hashIS6_EENS_8equal_toIS6_EENS4_INS_4pairIKS6_SD_EEEEED1B8ne180100Ev, symObjAddr: 0x55AC, symBinAddr: 0x74E50, symSize: 0x4 }
  - { offset: 0x8409C, size: 0x8, addend: 0x0, symName: __ZNSt3__112__hash_tableINS_17__hash_value_typeINS_12basic_stringIcNS_11char_traitsIcEENS_9allocatorIcEEEEN8cpptrace2v16detail6ResultINSA_6mach_oENSA_14internal_errorELi0EEEEENS_22__unordered_map_hasherIS7_SF_NS_4hashIS7_EENS_8equal_toIS7_EELb1EEENS_21__unordered_map_equalIS7_SF_SK_SI_Lb1EEENS5_ISF_EEED2Ev, symObjAddr: 0x9E6C, symBinAddr: 0x78E24, symSize: 0xB8 }
  - { offset: 0x846E0, size: 0x8, addend: 0x0, symName: __ZN8cpptrace2v16detail14internal_errorD0Ev, symObjAddr: 0x5624, symBinAddr: 0x74EC8, symSize: 0x40 }
  - { offset: 0x84881, size: 0x8, addend: 0x0, symName: __ZNK8cpptrace2v16detail14internal_error4whatEv, symObjAddr: 0x5664, symBinAddr: 0x74F08, symSize: 0x1C }
  - { offset: 0x84B9E, size: 0x8, addend: 0x0, symName: __ZNSt3__112basic_stringIcNS_11char_traitsIcEENS_9allocatorIcEEE17__assign_externalEPKcm, symObjAddr: 0x57FC, symBinAddr: 0x74FF0, symSize: 0x15C }
  - { offset: 0x85273, size: 0x8, addend: 0x0, symName: __ZNSt3__112basic_stringIcNS_11char_traitsIcEENS_9allocatorIcEEE17__assign_externalEPKc, symObjAddr: 0x5958, symBinAddr: 0x7514C, symSize: 0x34 }
  - { offset: 0x85550, size: 0x8, addend: 0x0, symName: __ZNSt3__16vectorIN8cpptrace2v16detail6mach_o12symbol_entryENS_9allocatorIS5_EEE21__push_back_slow_pathIS5_EEPS5_OT_, symObjAddr: 0x5B24, symBinAddr: 0x752F0, symSize: 0x148 }
  - { offset: 0x8574C, size: 0x8, addend: 0x0, symName: '__ZNSt3__111__introsortINS_17_ClassicAlgPolicyERZN8cpptrace2v16detail6mach_o12symbol_tableEvE3$_0PNS5_12symbol_entryELb0EEEvT1_SA_T0_NS_15iterator_traitsISA_E15difference_typeEb', symObjAddr: 0x5C80, symBinAddr: 0x75438, symSize: 0xC4C }
  - { offset: 0x85839, size: 0x8, addend: 0x0, symName: __ZN8cpptrace2v16detail6ResultINS1_6mach_oENS1_14internal_errorELi0EEC2EOS5_, symObjAddr: 0x70A8, symBinAddr: 0x767C0, symSize: 0x11C }
  - { offset: 0x85D4E, size: 0x8, addend: 0x0, symName: __ZZN8cpptrace2v18microfmt6detail6formatINSt3__120back_insert_iteratorINS4_12basic_stringIcNS4_11char_traitsIcEENS4_9allocatorIcEEEEEEPKcEEvT_T0_SG_RKSt16initializer_listINS2_12format_valueEEENKUlvE0_clEv, symObjAddr: 0x73B0, symBinAddr: 0x76AC8, symSize: 0x300 }
  - { offset: 0x8605C, size: 0x8, addend: 0x0, symName: __ZNK8cpptrace2v18microfmt6detail12format_value5writeINSt3__120back_insert_iteratorINS5_12basic_stringIcNS5_11char_traitsIcEENS5_9allocatorIcEEEEEEEEvT_RKNS2_14format_optionsE, symObjAddr: 0x76B0, symBinAddr: 0x76DC8, symSize: 0x2C0 }
  - { offset: 0x86DEC, size: 0x8, addend: 0x0, symName: __ZN8cpptrace2v16detail6ResultI14mach_header_64NS1_14internal_errorELi0EEC1ERKS4_, symObjAddr: 0x8048, symBinAddr: 0x77510, symSize: 0xD8 }
  - { offset: 0x870FE, size: 0x8, addend: 0x0, symName: __ZN8cpptrace2v16detail6ResultI12load_commandNS1_14internal_errorELi0EEC1ERKS4_, symObjAddr: 0x8120, symBinAddr: 0x775E8, symSize: 0xD8 }
  - { offset: 0x8745A, size: 0x8, addend: 0x0, symName: __ZN8cpptrace2v16detail6ResultI11mach_headerNS1_14internal_errorELi0EEC1ERKS4_, symObjAddr: 0x8310, symBinAddr: 0x77778, symSize: 0xD8 }
  - { offset: 0x877DB, size: 0x8, addend: 0x0, symName: __ZN8cpptrace2v16detail6ResultI15segment_commandNS1_14internal_errorELi0EEC1ERKS4_, symObjAddr: 0x87CC, symBinAddr: 0x77C34, symSize: 0xD8 }
  - { offset: 0x87B50, size: 0x8, addend: 0x0, symName: __ZN8cpptrace2v16detail6ResultI5nlistNS1_14internal_errorELi0EEC1ERKS4_, symObjAddr: 0x8CB4, symBinAddr: 0x780D0, symSize: 0xD8 }
  - { offset: 0x8874B, size: 0x8, addend: 0x0, symName: __ZNKSt3__121__murmur2_or_cityhashImLm64EEclB8ne180100EPKvm, symObjAddr: 0x92A8, symBinAddr: 0x786C4, symSize: 0x438 }
  - { offset: 0x894A5, size: 0x8, addend: 0x0, symName: __ZNSt3__110unique_ptrINS_11__hash_nodeINS_17__hash_value_typeINS_12basic_stringIcNS_11char_traitsIcEENS_9allocatorIcEEEENS_6vectorIN8cpptrace2v16detail6mach_o15debug_map_entryENS6_ISE_EEEEEEPvEENS_22__hash_node_destructorINS6_ISJ_EEEEE5resetB8ne180100EPSJ_, symObjAddr: 0x983C, symBinAddr: 0x78AFC, symSize: 0xA0 }
  - { offset: 0x894BA, size: 0x8, addend: 0x0, symName: __ZNSt3__110unique_ptrINS_11__hash_nodeINS_17__hash_value_typeINS_12basic_stringIcNS_11char_traitsIcEENS_9allocatorIcEEEENS_6vectorIN8cpptrace2v16detail6mach_o15debug_map_entryENS6_ISE_EEEEEEPvEENS_22__hash_node_destructorINS6_ISJ_EEEEE5resetB8ne180100EPSJ_, symObjAddr: 0x983C, symBinAddr: 0x78AFC, symSize: 0xA0 }
  - { offset: 0x8AA09, size: 0x8, addend: 0x0, symName: __ZNSt3__110unique_ptrINS_11__hash_nodeINS_17__hash_value_typeINS_12basic_stringIcNS_11char_traitsIcEENS_9allocatorIcEEEEN8cpptrace2v16detail6ResultINSB_6mach_oENSB_14internal_errorELi0EEEEEPvEENS_22__hash_node_destructorINS6_ISI_EEEEE5resetB8ne180100EPSI_, symObjAddr: 0xA5BC, symBinAddr: 0x79418, symSize: 0x90 }
  - { offset: 0x8AA1E, size: 0x8, addend: 0x0, symName: __ZNSt3__110unique_ptrINS_11__hash_nodeINS_17__hash_value_typeINS_12basic_stringIcNS_11char_traitsIcEENS_9allocatorIcEEEEN8cpptrace2v16detail6ResultINSB_6mach_oENSB_14internal_errorELi0EEEEEPvEENS_22__hash_node_destructorINS6_ISI_EEEEE5resetB8ne180100EPSI_, symObjAddr: 0xA5BC, symBinAddr: 0x79418, symSize: 0x90 }
  - { offset: 0x8CC59, size: 0x8, addend: 0x0, symName: __ZN8cpptrace2v16detail21get_module_image_baseERKNSt3__112basic_stringIcNS2_11char_traitsIcEENS2_9allocatorIcEEEE, symObjAddr: 0x0, symBinAddr: 0x794A8, symSize: 0x350 }
  - { offset: 0x8CC83, size: 0x8, addend: 0x0, symName: __ZZN8cpptrace2v16detail21get_module_image_baseERKNSt3__112basic_stringIcNS2_11char_traitsIcEENS2_9allocatorIcEEEEE5mutex, symObjAddr: 0x20F8, symBinAddr: 0xB0FC0, symSize: 0x0 }
  - { offset: 0x8CC99, size: 0x8, addend: 0x0, symName: __ZZN8cpptrace2v16detail21get_module_image_baseERKNSt3__112basic_stringIcNS2_11char_traitsIcEENS2_9allocatorIcEEEEE5cache, symObjAddr: 0x60988, symBinAddr: 0xB1168, symSize: 0x0 }
  - { offset: 0x9A334, size: 0x8, addend: 0x0, symName: __ZNSt3__112__hash_tableINS_17__hash_value_typeINS_12basic_stringIcNS_11char_traitsIcEENS_9allocatorIcEEEEmEENS_22__unordered_map_hasherIS7_S8_NS_4hashIS7_EENS_8equal_toIS7_EELb1EEENS_21__unordered_map_equalIS7_S8_SD_SB_Lb1EEENS5_IS8_EEE4findIS7_EENS_15__hash_iteratorIPNS_11__hash_nodeIS8_PvEEEERKT_, symObjAddr: 0x724, symBinAddr: 0x7999C, symSize: 0x180 }
  - { offset: 0x9A63F, size: 0x8, addend: 0x0, symName: __ZN8cpptrace2v16detail6ResultImNS1_14internal_errorELi0EEC1ERKS3_, symObjAddr: 0x3B8, symBinAddr: 0x79860, symSize: 0xD8 }
  - { offset: 0x9AB2D, size: 0x8, addend: 0x0, symName: __ZNSt3__112__hash_tableINS_17__hash_value_typeINS_12basic_stringIcNS_11char_traitsIcEENS_9allocatorIcEEEEmEENS_22__unordered_map_hasherIS7_S8_NS_4hashIS7_EENS_8equal_toIS7_EELb1EEENS_21__unordered_map_equalIS7_S8_SD_SB_Lb1EEENS5_IS8_EEE25__emplace_unique_key_argsIS7_JNS_4pairIKS7_mEEEEENSK_INS_15__hash_iteratorIPNS_11__hash_nodeIS8_PvEEEEbEERKT_DpOT0_, symObjAddr: 0x1A40, symBinAddr: 0x79B1C, symSize: 0x3B4 }
  - { offset: 0x9BB5E, size: 0x8, addend: 0x0, symName: __ZN8cpptrace2v16detail6ResultINS1_11maybe_ownedINS1_6mach_oEEENS1_14internal_errorELi0EED1Ev, symObjAddr: 0x518, symBinAddr: 0x79938, symSize: 0x64 }
  - { offset: 0x9C036, size: 0x8, addend: 0x0, symName: __ZNSt3__113unordered_mapINS_12basic_stringIcNS_11char_traitsIcEENS_9allocatorIcEEEEmNS_4hashIS6_EENS_8equal_toIS6_EENS4_INS_4pairIKS6_mEEEEED1B8ne180100Ev, symObjAddr: 0x350, symBinAddr: 0x797F8, symSize: 0x68 }
  - { offset: 0x9EA1A, size: 0x8, addend: 0x0, symName: __ZNSt3__110unique_ptrINS_11__hash_nodeINS_17__hash_value_typeINS_12basic_stringIcNS_11char_traitsIcEENS_9allocatorIcEEEEmEEPvEENS_22__hash_node_destructorINS6_ISB_EEEEED1B8ne180100Ev, symObjAddr: 0x1DF4, symBinAddr: 0x79ED0, symSize: 0x4C }
  - { offset: 0xA0CD8, size: 0x8, addend: 0x0, symName: __ZN8cpptrace2v16detail21get_frame_object_infoEm, symObjAddr: 0x0, symBinAddr: 0x79F1C, symSize: 0x1F0 }
  - { offset: 0xA70B1, size: 0x8, addend: 0x0, symName: __ZN8cpptrace2v16detail21get_frame_object_infoEm, symObjAddr: 0x0, symBinAddr: 0x79F1C, symSize: 0x1F0 }
  - { offset: 0xA7C4D, size: 0x8, addend: 0x0, symName: __ZN8cpptrace2v16detail22get_frames_object_infoERKNSt3__16vectorImNS2_9allocatorImEEEE, symObjAddr: 0x23C, symBinAddr: 0x7A10C, symSize: 0xFC }
  - { offset: 0xA8222, size: 0x8, addend: 0x0, symName: __ZN8cpptrace2v16detail25resolve_safe_object_frameERKNS0_17safe_object_frameE, symObjAddr: 0x4C8, symBinAddr: 0x7A398, symSize: 0x11C }
  - { offset: 0xA960F, size: 0x8, addend: 0x0, symName: __ZNSt3__16vectorIN8cpptrace2v112object_frameENS_9allocatorIS3_EEE7reserveEm, symObjAddr: 0x338, symBinAddr: 0x7A208, symSize: 0x120 }
  - { offset: 0xA9BEA, size: 0x8, addend: 0x0, symName: __ZNSt3__16vectorIN8cpptrace2v112object_frameENS_9allocatorIS3_EEED1B8ne180100Ev, symObjAddr: 0x458, symBinAddr: 0x7A328, symSize: 0x70 }
  - { offset: 0xAA06A, size: 0x8, addend: 0x0, symName: __ZNSt3__16vectorIN8cpptrace2v112object_frameENS_9allocatorIS3_EEED1B8ne180100Ev, symObjAddr: 0x458, symBinAddr: 0x7A328, symSize: 0x70 }
  - { offset: 0xACBB9, size: 0x8, addend: 0x0, symName: __ZN8cpptrace2v16detail21get_safe_object_frameEmPNS0_17safe_object_frameE, symObjAddr: 0x0, symBinAddr: 0x7A4B4, symSize: 0xC }
  - { offset: 0xACBD6, size: 0x8, addend: 0x0, symName: __ZN8cpptrace2v16detail21get_safe_object_frameEmPNS0_17safe_object_frameE, symObjAddr: 0x0, symBinAddr: 0x7A4B4, symSize: 0xC }
  - { offset: 0xACC0D, size: 0x8, addend: 0x0, symName: __ZN8cpptrace2v16detail25has_get_safe_object_frameEv, symObjAddr: 0xC, symBinAddr: 0x7A4C0, symSize: 0x8 }
  - { offset: 0xAF705, size: 0x8, addend: 0x0, symName: __ZN8cpptrace2v16detail29get_default_snippet_formatterEv, symObjAddr: 0xBEC, symBinAddr: 0x7B094, symSize: 0xC8 }
  - { offset: 0xAF72F, size: 0x8, addend: 0x0, symName: __ZZN8cpptrace2v16detail29get_default_snippet_formatterEvE17snippet_formatter, symObjAddr: 0x338A0, symBinAddr: 0xB1198, symSize: 0x0 }
  - { offset: 0xB0350, size: 0x8, addend: 0x0, symName: __ZN8cpptrace2v118generate_raw_traceEm, symObjAddr: 0x74, symBinAddr: 0x7A53C, symSize: 0x78 }
  - { offset: 0xB03F8, size: 0x8, addend: 0x0, symName: __ZN8cpptrace2v118generate_raw_traceEmm, symObjAddr: 0x170, symBinAddr: 0x7A628, symSize: 0x74 }
  - { offset: 0xB04B6, size: 0x8, addend: 0x0, symName: __ZN8cpptrace2v121generate_object_traceEm, symObjAddr: 0x474, symBinAddr: 0x7A92C, symSize: 0xB8 }
  - { offset: 0xB0837, size: 0x8, addend: 0x0, symName: __ZN8cpptrace2v121generate_object_traceEmm, symObjAddr: 0x5A0, symBinAddr: 0x7AA58, symSize: 0xB4 }
  - { offset: 0xB0BE6, size: 0x8, addend: 0x0, symName: __ZN8cpptrace2v1lsERNSt3__113basic_ostreamIcNS1_11char_traitsIcEEEERKNS0_16stacktrace_frameE, symObjAddr: 0x82C, symBinAddr: 0x7ACD4, symSize: 0x9C }
  - { offset: 0xB0F85, size: 0x8, addend: 0x0, symName: __ZN8cpptrace2v114generate_traceEm, symObjAddr: 0x93C, symBinAddr: 0x7ADE4, symSize: 0x78 }
  - { offset: 0xB1031, size: 0x8, addend: 0x0, symName: __ZN8cpptrace2v114generate_traceEmm, symObjAddr: 0xA28, symBinAddr: 0x7AED0, symSize: 0x138 }
  - { offset: 0xB168F, size: 0x8, addend: 0x0, symName: __ZN8cpptrace2v1lsERNSt3__113basic_ostreamIcNS1_11char_traitsIcEEEERKNS0_10stacktraceE, symObjAddr: 0xE10, symBinAddr: 0x7B2A8, symSize: 0x34 }
  - { offset: 0xB16DA, size: 0x8, addend: 0x0, symName: __ZN8cpptrace2v123safe_generate_raw_traceEPmmm, symObjAddr: 0xE44, symBinAddr: 0x7B2DC, symSize: 0x70 }
  - { offset: 0xB176A, size: 0x8, addend: 0x0, symName: __ZN8cpptrace2v123safe_generate_raw_traceEPmmmm, symObjAddr: 0xEB4, symBinAddr: 0x7B34C, symSize: 0x6C }
  - { offset: 0xB1810, size: 0x8, addend: 0x0, symName: __ZN8cpptrace2v121get_safe_object_frameEmPNS0_17safe_object_frameE, symObjAddr: 0xF24, symBinAddr: 0x7B3BC, symSize: 0x4 }
  - { offset: 0xB184D, size: 0x8, addend: 0x0, symName: __ZN8cpptrace2v121get_safe_object_frameEmPNS0_17safe_object_frameE, symObjAddr: 0xF24, symBinAddr: 0x7B3BC, symSize: 0x4 }
  - { offset: 0xB1867, size: 0x8, addend: 0x0, symName: __ZN8cpptrace2v122can_signal_safe_unwindEv, symObjAddr: 0xF28, symBinAddr: 0x7B3C0, symSize: 0x4 }
  - { offset: 0xB188A, size: 0x8, addend: 0x0, symName: __ZN8cpptrace2v122can_signal_safe_unwindEv, symObjAddr: 0xF28, symBinAddr: 0x7B3C0, symSize: 0x4 }
  - { offset: 0xB1895, size: 0x8, addend: 0x0, symName: __ZN8cpptrace2v119register_jit_objectEPKcm, symObjAddr: 0xF30, symBinAddr: 0x7B3C4, symSize: 0x4 }
  - { offset: 0xB18D2, size: 0x8, addend: 0x0, symName: __ZN8cpptrace2v119register_jit_objectEPKcm, symObjAddr: 0xF30, symBinAddr: 0x7B3C4, symSize: 0x4 }
  - { offset: 0xB18EC, size: 0x8, addend: 0x0, symName: __ZN8cpptrace2v121unregister_jit_objectEPKc, symObjAddr: 0xF34, symBinAddr: 0x7B3C8, symSize: 0x4 }
  - { offset: 0xB191A, size: 0x8, addend: 0x0, symName: __ZN8cpptrace2v121unregister_jit_objectEPKc, symObjAddr: 0xF34, symBinAddr: 0x7B3C8, symSize: 0x4 }
  - { offset: 0xB192D, size: 0x8, addend: 0x0, symName: __ZN8cpptrace2v121clear_all_jit_objectsEv, symObjAddr: 0xF38, symBinAddr: 0x7B3CC, symSize: 0x4 }
  - { offset: 0xB194C, size: 0x8, addend: 0x0, symName: __ZN8cpptrace2v121clear_all_jit_objectsEv, symObjAddr: 0xF38, symBinAddr: 0x7B3CC, symSize: 0x4 }
  - { offset: 0xB9422, size: 0x8, addend: 0x0, symName: __ZN8cpptrace2v19raw_trace7currentEm, symObjAddr: 0x0, symBinAddr: 0x7A4C8, symSize: 0x74 }
  - { offset: 0xB94DE, size: 0x8, addend: 0x0, symName: __ZN8cpptrace2v19raw_trace7currentEmm, symObjAddr: 0xFC, symBinAddr: 0x7A5B4, symSize: 0x74 }
  - { offset: 0xB95CD, size: 0x8, addend: 0x0, symName: __ZNK8cpptrace2v19raw_trace20resolve_object_traceEv, symObjAddr: 0x1E4, symBinAddr: 0x7A69C, symSize: 0x70 }
  - { offset: 0xB981E, size: 0x8, addend: 0x0, symName: __ZNK8cpptrace2v19raw_trace7resolveEv, symObjAddr: 0x254, symBinAddr: 0x7A70C, symSize: 0x104 }
  - { offset: 0xB9B3E, size: 0x8, addend: 0x0, symName: __ZNSt3__16vectorIN8cpptrace2v116stacktrace_frameENS_9allocatorIS3_EEED1B8ne180100Ev, symObjAddr: 0x358, symBinAddr: 0x7A810, symSize: 0x8C }
  - { offset: 0xBA121, size: 0x8, addend: 0x0, symName: __ZN8cpptrace2v19raw_trace5clearEv, symObjAddr: 0x3E4, symBinAddr: 0x7A89C, symSize: 0xC }
  - { offset: 0xBA14B, size: 0x8, addend: 0x0, symName: __ZN8cpptrace2v19raw_trace5clearEv, symObjAddr: 0x3E4, symBinAddr: 0x7A89C, symSize: 0xC }
  - { offset: 0xBA168, size: 0x8, addend: 0x0, symName: __ZN8cpptrace2v19raw_trace5clearEv, symObjAddr: 0x3E4, symBinAddr: 0x7A89C, symSize: 0xC }
  - { offset: 0xBA1E1, size: 0x8, addend: 0x0, symName: __ZNK8cpptrace2v19raw_trace5emptyEv, symObjAddr: 0x3F0, symBinAddr: 0x7A8A8, symSize: 0x10 }
  - { offset: 0xBA20D, size: 0x8, addend: 0x0, symName: __ZNK8cpptrace2v19raw_trace5emptyEv, symObjAddr: 0x3F0, symBinAddr: 0x7A8A8, symSize: 0x10 }
  - { offset: 0xBA228, size: 0x8, addend: 0x0, symName: __ZN8cpptrace2v112object_trace7currentEm, symObjAddr: 0x400, symBinAddr: 0x7A8B8, symSize: 0x74 }
  - { offset: 0xBA374, size: 0x8, addend: 0x0, symName: __ZN8cpptrace2v112object_trace7currentEmm, symObjAddr: 0x52C, symBinAddr: 0x7A9E4, symSize: 0x74 }
  - { offset: 0xBA467, size: 0x8, addend: 0x0, symName: __ZNK8cpptrace2v112object_trace7resolveEv, symObjAddr: 0x654, symBinAddr: 0x7AB0C, symSize: 0x104 }
  - { offset: 0xBA8A9, size: 0x8, addend: 0x0, symName: __ZN8cpptrace2v112object_trace5clearEv, symObjAddr: 0x758, symBinAddr: 0x7AC10, symSize: 0x50 }
  - { offset: 0xBAB04, size: 0x8, addend: 0x0, symName: __ZNK8cpptrace2v116stacktrace_frame15get_object_infoEv, symObjAddr: 0x7B8, symBinAddr: 0x7AC60, symSize: 0x8 }
  - { offset: 0xBAB66, size: 0x8, addend: 0x0, symName: __ZNK8cpptrace2v116stacktrace_frame9to_stringEv, symObjAddr: 0x7C0, symBinAddr: 0x7AC68, symSize: 0x30 }
  - { offset: 0xBABC0, size: 0x8, addend: 0x0, symName: __ZNK8cpptrace2v116stacktrace_frame9to_stringEb, symObjAddr: 0x7F0, symBinAddr: 0x7AC98, symSize: 0x3C }
  - { offset: 0xBAC45, size: 0x8, addend: 0x0, symName: __ZN8cpptrace2v110stacktrace7currentEm, symObjAddr: 0x8C8, symBinAddr: 0x7AD70, symSize: 0x74 }
  - { offset: 0xBACE5, size: 0x8, addend: 0x0, symName: __ZN8cpptrace2v110stacktrace7currentEmm, symObjAddr: 0x9B4, symBinAddr: 0x7AE5C, symSize: 0x74 }
  - { offset: 0xBAD9B, size: 0x8, addend: 0x0, symName: __ZNK8cpptrace2v110stacktrace5printEv, symObjAddr: 0xB60, symBinAddr: 0x7B008, symSize: 0x24 }
  - { offset: 0xBADD2, size: 0x8, addend: 0x0, symName: __ZNK8cpptrace2v110stacktrace5printERNSt3__113basic_ostreamIcNS2_11char_traitsIcEEEE, symObjAddr: 0xB84, symBinAddr: 0x7B02C, symSize: 0x2C }
  - { offset: 0xBAE18, size: 0x8, addend: 0x0, symName: __ZNK8cpptrace2v110stacktrace5printERNSt3__113basic_ostreamIcNS2_11char_traitsIcEEEEb, symObjAddr: 0xBB0, symBinAddr: 0x7B058, symSize: 0x3C }
  - { offset: 0xBAE6D, size: 0x8, addend: 0x0, symName: __ZNK8cpptrace2v110stacktrace19print_with_snippetsEv, symObjAddr: 0xCB4, symBinAddr: 0x7B15C, symSize: 0x2C }
  - { offset: 0xBAEA4, size: 0x8, addend: 0x0, symName: __ZNK8cpptrace2v110stacktrace19print_with_snippetsERNSt3__113basic_ostreamIcNS2_11char_traitsIcEEEE, symObjAddr: 0xCE0, symBinAddr: 0x7B188, symSize: 0x34 }
  - { offset: 0xBAEEA, size: 0x8, addend: 0x0, symName: __ZNK8cpptrace2v110stacktrace19print_with_snippetsERNSt3__113basic_ostreamIcNS2_11char_traitsIcEEEEb, symObjAddr: 0xD14, symBinAddr: 0x7B1BC, symSize: 0x44 }
  - { offset: 0xBAF7C, size: 0x8, addend: 0x0, symName: __ZN8cpptrace2v110stacktrace5clearEv, symObjAddr: 0xD58, symBinAddr: 0x7B200, symSize: 0x6C }
  - { offset: 0xBB2E7, size: 0x8, addend: 0x0, symName: __ZNK8cpptrace2v110stacktrace9to_stringEb, symObjAddr: 0xDD4, symBinAddr: 0x7B26C, symSize: 0x3C }
  - { offset: 0xBB338, size: 0x8, addend: 0x0, symName: __ZNK8cpptrace2v117safe_object_frame7resolveEv, symObjAddr: 0xF20, symBinAddr: 0x7B3B8, symSize: 0x4 }
  - { offset: 0xBB363, size: 0x8, addend: 0x0, symName: __ZNK8cpptrace2v117safe_object_frame7resolveEv, symObjAddr: 0xF20, symBinAddr: 0x7B3B8, symSize: 0x4 }
  - { offset: 0xBD55D, size: 0x8, addend: 0x0, symName: __ZN8cpptrace2v115prettify_symbolENSt3__112basic_stringIcNS1_11char_traitsIcEENS1_9allocatorIcEEEE, symObjAddr: 0x240, symBinAddr: 0x7B610, symSize: 0x79C }
  - { offset: 0xBD587, size: 0x8, addend: 0x0, symName: __ZZN8cpptrace2v115prettify_symbolENSt3__112basic_stringIcNS1_11char_traitsIcEENS1_9allocatorIcEEEEE8comma_re, symObjAddr: 0x1283D0, symBinAddr: 0xB11A8, symSize: 0x0 }
  - { offset: 0xBD59D, size: 0x8, addend: 0x0, symName: __ZZN8cpptrace2v115prettify_symbolENSt3__112basic_stringIcNS1_11char_traitsIcEENS1_9allocatorIcEEEEE8class_re, symObjAddr: 0x128418, symBinAddr: 0xB11F0, symSize: 0x0 }
  - { offset: 0xBD5B3, size: 0x8, addend: 0x0, symName: __ZZN8cpptrace2v115prettify_symbolENSt3__112basic_stringIcNS1_11char_traitsIcEENS1_9allocatorIcEEEEE24msvc_anonymous_namespace, symObjAddr: 0x128460, symBinAddr: 0xB1238, symSize: 0x0 }
  - { offset: 0xBD5C9, size: 0x8, addend: 0x0, symName: __ZZN8cpptrace2v115prettify_symbolENSt3__112basic_stringIcNS1_11char_traitsIcEENS1_9allocatorIcEEEEE12basic_string, symObjAddr: 0x1284A8, symBinAddr: 0xB1280, symSize: 0x0 }
  - { offset: 0xBD5DF, size: 0x8, addend: 0x0, symName: __ZZN8cpptrace2v115prettify_symbolENSt3__112basic_stringIcNS1_11char_traitsIcEENS1_9allocatorIcEEEEE17basic_string_view, symObjAddr: 0x128508, symBinAddr: 0xB12E0, symSize: 0x0 }
  - { offset: 0xBD5F5, size: 0x8, addend: 0x0, symName: __ZZN8cpptrace2v115prettify_symbolENSt3__112basic_stringIcNS1_11char_traitsIcEENS1_9allocatorIcEEEEE9allocator, symObjAddr: 0x128568, symBinAddr: 0xB1340, symSize: 0x0 }
  - { offset: 0xBD60B, size: 0x8, addend: 0x0, symName: __ZZN8cpptrace2v115prettify_symbolENSt3__112basic_stringIcNS1_11char_traitsIcEENS1_9allocatorIcEEEEE14default_delete, symObjAddr: 0x1285C8, symBinAddr: 0xB13A0, symSize: 0x0 }
  - { offset: 0xBE98A, size: 0x8, addend: 0x0, symName: __ZN8cpptrace2v121get_default_formatterEv, symObjAddr: 0x1F54, symBinAddr: 0x7D314, symSize: 0x90 }
  - { offset: 0xBE9B6, size: 0x8, addend: 0x0, symName: __ZZN8cpptrace2v121get_default_formatterEvE9formatter, symObjAddr: 0x128628, symBinAddr: 0xB1400, symSize: 0x0 }
  - { offset: 0xBF728, size: 0x8, addend: 0x0, symName: __ZN8cpptrace2v16detail8basenameENS1_12cstring_viewEb, symObjAddr: 0x20, symBinAddr: 0x7B3F0, symSize: 0x220 }
  - { offset: 0xBFCDB, size: 0x8, addend: 0x0, symName: __ZN8cpptrace2v115prettify_symbolENSt3__112basic_stringIcNS1_11char_traitsIcEENS1_9allocatorIcEEEE, symObjAddr: 0x240, symBinAddr: 0x7B610, symSize: 0x79C }
  - { offset: 0xC0197, size: 0x8, addend: 0x0, symName: __ZN8cpptrace2v16detail9as_stringIRA22_KcEENSt3__112basic_stringIcNS6_11char_traitsIcEENS6_9allocatorIcEEEEOT_, symObjAddr: 0x4E10, symBinAddr: 0x7F6D8, symSize: 0x9C }
  - { offset: 0xC05AE, size: 0x8, addend: 0x0, symName: __ZNOSt3__115basic_stringbufIcNS_11char_traitsIcEENS_9allocatorIcEEE3strB8ne180100Ev, symObjAddr: 0x4EAC, symBinAddr: 0x7F774, symSize: 0x168 }
  - { offset: 0xC09F8, size: 0x8, addend: 0x0, symName: __ZN8cpptrace2v18microfmt6detail6formatINSt3__116ostream_iteratorIccNS4_11char_traitsIcEEEEPKcEEvT_T0_SC_RKSt16initializer_listINS2_12format_valueEE, symObjAddr: 0x3C1C, symBinAddr: 0x7EDDC, symSize: 0x154 }
  - { offset: 0xC1610, size: 0x8, addend: 0x0, symName: __ZN8cpptrace2v18microfmt6detail8do_writeINSt3__116ostream_iteratorIccNS4_11char_traitsIcEEEEPKcEEvT_T0_SC_RKNS2_14format_optionsE, symObjAddr: 0x434C, symBinAddr: 0x7F50C, symSize: 0x1CC }
  - { offset: 0xC27F1, size: 0x8, addend: 0x0, symName: __ZN8cpptrace2v18basenameERKNSt3__112basic_stringIcNS1_11char_traitsIcEENS1_9allocatorIcEEEE, symObjAddr: 0x0, symBinAddr: 0x7B3D0, symSize: 0x20 }
  - { offset: 0xC2822, size: 0x8, addend: 0x0, symName: __ZN8cpptrace2v18basenameERKNSt3__112basic_stringIcNS1_11char_traitsIcEENS1_9allocatorIcEEEE, symObjAddr: 0x0, symBinAddr: 0x7B3D0, symSize: 0x20 }
  - { offset: 0xC2841, size: 0x8, addend: 0x0, symName: __ZN8cpptrace2v18basenameERKNSt3__112basic_stringIcNS1_11char_traitsIcEENS1_9allocatorIcEEEE, symObjAddr: 0x0, symBinAddr: 0x7B3D0, symSize: 0x20 }
  - { offset: 0xC2860, size: 0x8, addend: 0x0, symName: __ZN8cpptrace2v18basenameERKNSt3__112basic_stringIcNS1_11char_traitsIcEENS1_9allocatorIcEEEE, symObjAddr: 0x0, symBinAddr: 0x7B3D0, symSize: 0x20 }
  - { offset: 0xC287D, size: 0x8, addend: 0x0, symName: __ZN8cpptrace2v18basenameERKNSt3__112basic_stringIcNS1_11char_traitsIcEENS1_9allocatorIcEEEE, symObjAddr: 0x0, symBinAddr: 0x7B3D0, symSize: 0x20 }
  - { offset: 0xC289B, size: 0x8, addend: 0x0, symName: __ZN8cpptrace2v18basenameERKNSt3__112basic_stringIcNS1_11char_traitsIcEENS1_9allocatorIcEEEE, symObjAddr: 0x0, symBinAddr: 0x7B3D0, symSize: 0x20 }
  - { offset: 0xC28B9, size: 0x8, addend: 0x0, symName: __ZN8cpptrace2v18basenameERKNSt3__112basic_stringIcNS1_11char_traitsIcEENS1_9allocatorIcEEEE, symObjAddr: 0x0, symBinAddr: 0x7B3D0, symSize: 0x20 }
  - { offset: 0xDCF29, size: 0x8, addend: 0x0, symName: __ZNSt3__14pairINS_11basic_regexIcNS_12regex_traitsIcEEEENS_12basic_stringIcNS_11char_traitsIcEENS_9allocatorIcEEEEEC2B8ne180100IS4_RA12_KcLi0EEEOT_OT0_, symObjAddr: 0x20F4, symBinAddr: 0x7D3A4, symSize: 0xF4 }
  - { offset: 0xDD479, size: 0x8, addend: 0x0, symName: __ZNSt3__111basic_regexIcNS_12regex_traitsIcEEED1Ev, symObjAddr: 0x9DC, symBinAddr: 0x7BDAC, symSize: 0x50 }
  - { offset: 0xDD5AF, size: 0x8, addend: 0x0, symName: __ZNSt3__14pairINS_11basic_regexIcNS_12regex_traitsIcEEEENS_12basic_stringIcNS_11char_traitsIcEENS_9allocatorIcEEEEEC2B8ne180100IS4_RA17_KcLi0EEEOT_OT0_, symObjAddr: 0x21E8, symBinAddr: 0x7D498, symSize: 0xF4 }
  - { offset: 0xDDAFF, size: 0x8, addend: 0x0, symName: __ZNSt3__14pairINS_11basic_regexIcNS_12regex_traitsIcEEEENS_12basic_stringIcNS_11char_traitsIcEENS_9allocatorIcEEEEEC2B8ne180100IS4_RA1_KcLi0EEEOT_OT0_, symObjAddr: 0x22DC, symBinAddr: 0x7D58C, symSize: 0xF4 }
  - { offset: 0xDE04F, size: 0x8, addend: 0x0, symName: __ZNSt3__14pairINS_11basic_regexIcNS_12regex_traitsIcEEEEN8cpptrace2v16detail11string_viewEED1Ev, symObjAddr: 0xA98, symBinAddr: 0x7BE68, symSize: 0x50 }
  - { offset: 0xDE283, size: 0x8, addend: 0x0, symName: __ZNSt3__14pairINS_11basic_regexIcNS_12regex_traitsIcEEEENS_12basic_stringIcNS_11char_traitsIcEENS_9allocatorIcEEEEED1Ev, symObjAddr: 0xA2C, symBinAddr: 0x7BDFC, symSize: 0x6C }
  - { offset: 0xDE7B4, size: 0x8, addend: 0x0, symName: __ZN8cpptrace2v19formatterC2Ev, symObjAddr: 0xAE8, symBinAddr: 0x7BEB8, symSize: 0xA8 }
  - { offset: 0xDECA4, size: 0x8, addend: 0x0, symName: __ZN8cpptrace2v19formatterC1Ev, symObjAddr: 0xB90, symBinAddr: 0x7BF60, symSize: 0xA8 }
  - { offset: 0xDF2DE, size: 0x8, addend: 0x0, symName: __ZN8cpptrace2v19formatterD2Ev, symObjAddr: 0xC38, symBinAddr: 0x7C008, symSize: 0xA0 }
  - { offset: 0xDF5E1, size: 0x8, addend: 0x0, symName: __ZN8cpptrace2v19formatterD1Ev, symObjAddr: 0xCD8, symBinAddr: 0x7C0A8, symSize: 0xA0 }
  - { offset: 0xDF8FD, size: 0x8, addend: 0x0, symName: __ZN8cpptrace2v19formatterC2EOS1_, symObjAddr: 0xD78, symBinAddr: 0x7C148, symSize: 0x10 }
  - { offset: 0xDF929, size: 0x8, addend: 0x0, symName: __ZN8cpptrace2v19formatterC2EOS1_, symObjAddr: 0xD78, symBinAddr: 0x7C148, symSize: 0x10 }
  - { offset: 0xDF9ED, size: 0x8, addend: 0x0, symName: __ZN8cpptrace2v19formatterC2ERKS1_, symObjAddr: 0xD98, symBinAddr: 0x7C158, symSize: 0x58 }
  - { offset: 0xDFA9B, size: 0x8, addend: 0x0, symName: __ZN8cpptrace2v19formatter4implUt_C2ERKS3_, symObjAddr: 0x23D0, symBinAddr: 0x7D680, symSize: 0x154 }
  - { offset: 0xDFE71, size: 0x8, addend: 0x0, symName: __ZN8cpptrace2v19formatterC1ERKS1_, symObjAddr: 0xDF0, symBinAddr: 0x7C1B0, symSize: 0x58 }
  - { offset: 0xDFF54, size: 0x8, addend: 0x0, symName: __ZN8cpptrace2v19formatteraSEOS1_, symObjAddr: 0xE48, symBinAddr: 0x7C208, symSize: 0xB8 }
  - { offset: 0xE027B, size: 0x8, addend: 0x0, symName: __ZN8cpptrace2v19formatteraSERKS1_, symObjAddr: 0xF00, symBinAddr: 0x7C2C0, symSize: 0xD8 }
  - { offset: 0xE0682, size: 0x8, addend: 0x0, symName: __ZN8cpptrace2v19formatter6headerENSt3__112basic_stringIcNS2_11char_traitsIcEENS2_9allocatorIcEEEE, symObjAddr: 0xFD8, symBinAddr: 0x7C398, symSize: 0xA0 }
  - { offset: 0xE0867, size: 0x8, addend: 0x0, symName: __ZN8cpptrace2v19formatter6colorsENS1_10color_modeE, symObjAddr: 0x1078, symBinAddr: 0x7C438, symSize: 0xC }
  - { offset: 0xE08E6, size: 0x8, addend: 0x0, symName: __ZN8cpptrace2v19formatter9addressesENS1_12address_modeE, symObjAddr: 0x1084, symBinAddr: 0x7C444, symSize: 0xC }
  - { offset: 0xE0965, size: 0x8, addend: 0x0, symName: __ZN8cpptrace2v19formatter5pathsENS1_9path_modeE, symObjAddr: 0x1090, symBinAddr: 0x7C450, symSize: 0xC }
  - { offset: 0xE09E4, size: 0x8, addend: 0x0, symName: __ZN8cpptrace2v19formatter8snippetsEb, symObjAddr: 0x109C, symBinAddr: 0x7C45C, symSize: 0xC }
  - { offset: 0xE0A60, size: 0x8, addend: 0x0, symName: __ZN8cpptrace2v19formatter15snippet_contextEi, symObjAddr: 0x10A8, symBinAddr: 0x7C468, symSize: 0xC }
  - { offset: 0xE0ADF, size: 0x8, addend: 0x0, symName: __ZN8cpptrace2v19formatter7columnsEb, symObjAddr: 0x10B4, symBinAddr: 0x7C474, symSize: 0xC }
  - { offset: 0xE0B5B, size: 0x8, addend: 0x0, symName: __ZN8cpptrace2v19formatter7symbolsENS1_11symbol_modeE, symObjAddr: 0x10C0, symBinAddr: 0x7C480, symSize: 0xC }
  - { offset: 0xE0BDA, size: 0x8, addend: 0x0, symName: __ZN8cpptrace2v19formatter27filtered_frame_placeholdersEb, symObjAddr: 0x10CC, symBinAddr: 0x7C48C, symSize: 0xC }
  - { offset: 0xE0DD6, size: 0x8, addend: 0x0, symName: __ZN8cpptrace2v19formatter6filterENSt3__18functionIFbRKNS0_16stacktrace_frameEEEE, symObjAddr: 0x10D8, symBinAddr: 0x7C498, symSize: 0x1A4 }
  - { offset: 0xE11BA, size: 0x8, addend: 0x0, symName: __ZNSt3__110__function12__value_funcIFbRKN8cpptrace2v116stacktrace_frameEEE4swapB8ne180100ERS8_, symObjAddr: 0x25B0, symBinAddr: 0x7D7D4, symSize: 0x174 }
  - { offset: 0xE1421, size: 0x8, addend: 0x0, symName: __ZN8cpptrace2v19formatter9transformENSt3__18functionIFNS0_16stacktrace_frameES4_EEE, symObjAddr: 0x127C, symBinAddr: 0x7C63C, symSize: 0x160 }
  - { offset: 0xE168D, size: 0x8, addend: 0x0, symName: __ZN8cpptrace2v19formatter21break_before_filenameEb, symObjAddr: 0x13DC, symBinAddr: 0x7C79C, symSize: 0xC }
  - { offset: 0xE1709, size: 0x8, addend: 0x0, symName: __ZN8cpptrace2v19formatter24hide_exception_machineryEb, symObjAddr: 0x13E8, symBinAddr: 0x7C7A8, symSize: 0xC }
  - { offset: 0xE17AB, size: 0x8, addend: 0x0, symName: __ZNK8cpptrace2v19formatter6formatERKNS0_16stacktrace_frameE, symObjAddr: 0x13F4, symBinAddr: 0x7C7B4, symSize: 0x2C }
  - { offset: 0xE184E, size: 0x8, addend: 0x0, symName: __ZNK8cpptrace2v19formatter4impl6formatERKNS0_16stacktrace_frameENS0_6detail8optionalIbLi0EEEm, symObjAddr: 0x1420, symBinAddr: 0x7C7E0, symSize: 0x1BC }
  - { offset: 0xE1F06, size: 0x8, addend: 0x0, symName: __ZNK8cpptrace2v19formatter4impl14print_internalERNSt3__113basic_ostreamIcNS3_11char_traitsIcEEEERKNS0_16stacktrace_frameENS0_6detail8optionalIbLi0EEEm, symObjAddr: 0x2724, symBinAddr: 0x7D948, symSize: 0x370 }
  - { offset: 0xE305A, size: 0x8, addend: 0x0, symName: __ZNOSt3__115basic_stringbufIcNS_11char_traitsIcEENS_9allocatorIcEEE3strB8ne180100Ev, symObjAddr: 0x4EAC, symBinAddr: 0x7F774, symSize: 0x168 }
  - { offset: 0xE36D5, size: 0x8, addend: 0x0, symName: __ZNSt3__119basic_ostringstreamIcNS_11char_traitsIcEENS_9allocatorIcEEED1Ev, symObjAddr: 0x2A94, symBinAddr: 0x7DCB8, symSize: 0x8C }
  - { offset: 0xE38EA, size: 0x8, addend: 0x0, symName: __ZNK8cpptrace2v19formatter6formatERKNS0_16stacktrace_frameEb, symObjAddr: 0x15DC, symBinAddr: 0x7C99C, symSize: 0x34 }
  - { offset: 0xE3999, size: 0x8, addend: 0x0, symName: __ZNK8cpptrace2v19formatter6formatERKNS0_16stacktrace_frameEbm, symObjAddr: 0x1610, symBinAddr: 0x7C9D0, symSize: 0x30 }
  - { offset: 0xE3A5B, size: 0x8, addend: 0x0, symName: __ZNK8cpptrace2v19formatter6formatERKNS0_10stacktraceE, symObjAddr: 0x1640, symBinAddr: 0x7CA00, symSize: 0x28 }
  - { offset: 0xE3AF9, size: 0x8, addend: 0x0, symName: __ZNK8cpptrace2v19formatter4impl6formatERKNS0_10stacktraceENS0_6detail8optionalIbLi0EEE, symObjAddr: 0x1668, symBinAddr: 0x7CA28, symSize: 0x1B4 }
  - { offset: 0xE3F26, size: 0x8, addend: 0x0, symName: __ZNK8cpptrace2v19formatter4impl14print_internalERNSt3__113basic_ostreamIcNS3_11char_traitsIcEEEERKNS0_10stacktraceENS0_6detail8optionalIbLi0EEE, symObjAddr: 0x51D8, symBinAddr: 0x7F95C, symSize: 0x130 }
  - { offset: 0xE409A, size: 0x8, addend: 0x0, symName: __ZNK8cpptrace2v19formatter6formatERKNS0_10stacktraceEb, symObjAddr: 0x181C, symBinAddr: 0x7CBDC, symSize: 0x30 }
  - { offset: 0xE4144, size: 0x8, addend: 0x0, symName: __ZNK8cpptrace2v19formatter5printERKNS0_10stacktraceE, symObjAddr: 0x184C, symBinAddr: 0x7CC0C, symSize: 0x28 }
  - { offset: 0xE41DB, size: 0x8, addend: 0x0, symName: __ZNK8cpptrace2v19formatter4impl5printERKNS0_10stacktraceENS0_6detail8optionalIbLi0EEE, symObjAddr: 0x1874, symBinAddr: 0x7CC34, symSize: 0xFC }
  - { offset: 0xE4559, size: 0x8, addend: 0x0, symName: __ZNK8cpptrace2v19formatter4impl11write_traceERNSt3__113basic_ostreamIcNS3_11char_traitsIcEEEERKNS0_10stacktraceEb, symObjAddr: 0x5308, symBinAddr: 0x7FA8C, symSize: 0x5EC }
  - { offset: 0xE5FE5, size: 0x8, addend: 0x0, symName: __ZNK8cpptrace2v19formatter5printERKNS0_10stacktraceEb, symObjAddr: 0x1970, symBinAddr: 0x7CD30, symSize: 0x30 }
  - { offset: 0xE6088, size: 0x8, addend: 0x0, symName: __ZNK8cpptrace2v19formatter5printERNSt3__113basic_ostreamIcNS2_11char_traitsIcEEEERKNS0_10stacktraceE, symObjAddr: 0x19A0, symBinAddr: 0x7CD60, symSize: 0x4C }
  - { offset: 0xE620A, size: 0x8, addend: 0x0, symName: __ZNK8cpptrace2v19formatter5printERNSt3__113basic_ostreamIcNS2_11char_traitsIcEEEERKNS0_10stacktraceEb, symObjAddr: 0x19EC, symBinAddr: 0x7CDAC, symSize: 0x54 }
  - { offset: 0xE6398, size: 0x8, addend: 0x0, symName: __ZNK8cpptrace2v19formatter5printEP7__sFILERKNS0_10stacktraceE, symObjAddr: 0x1A40, symBinAddr: 0x7CE00, symSize: 0x28 }
  - { offset: 0xE6447, size: 0x8, addend: 0x0, symName: __ZNK8cpptrace2v19formatter4impl5printEP7__sFILERKNS0_10stacktraceENS0_6detail8optionalIbLi0EEE, symObjAddr: 0x1A68, symBinAddr: 0x7CE28, symSize: 0x134 }
  - { offset: 0xE6C15, size: 0x8, addend: 0x0, symName: __ZNK8cpptrace2v19formatter5printEP7__sFILERKNS0_10stacktraceEb, symObjAddr: 0x1B9C, symBinAddr: 0x7CF5C, symSize: 0x30 }
  - { offset: 0xE6D3E, size: 0x8, addend: 0x0, symName: __ZNK8cpptrace2v19formatter5printERKNS0_16stacktrace_frameE, symObjAddr: 0x1BCC, symBinAddr: 0x7CF8C, symSize: 0x5C }
  - { offset: 0xE6EE6, size: 0x8, addend: 0x0, symName: __ZNK8cpptrace2v19formatter5printERKNS0_16stacktrace_frameEb, symObjAddr: 0x1C28, symBinAddr: 0x7CFE8, symSize: 0x68 }
  - { offset: 0xE709A, size: 0x8, addend: 0x0, symName: __ZNK8cpptrace2v19formatter5printERNSt3__113basic_ostreamIcNS2_11char_traitsIcEEEERKNS0_16stacktrace_frameE, symObjAddr: 0x1C90, symBinAddr: 0x7D050, symSize: 0x50 }
  - { offset: 0xE7228, size: 0x8, addend: 0x0, symName: __ZNK8cpptrace2v19formatter5printERNSt3__113basic_ostreamIcNS2_11char_traitsIcEEEERKNS0_16stacktrace_frameEb, symObjAddr: 0x1CE0, symBinAddr: 0x7D0A0, symSize: 0x58 }
  - { offset: 0xE73C2, size: 0x8, addend: 0x0, symName: __ZNK8cpptrace2v19formatter5printERNSt3__113basic_ostreamIcNS2_11char_traitsIcEEEERKNS0_16stacktrace_frameEbm, symObjAddr: 0x1D38, symBinAddr: 0x7D0F8, symSize: 0x54 }
  - { offset: 0xE7572, size: 0x8, addend: 0x0, symName: __ZNK8cpptrace2v19formatter5printEP7__sFILERKNS0_16stacktrace_frameE, symObjAddr: 0x1D8C, symBinAddr: 0x7D14C, symSize: 0x2C }
  - { offset: 0xE7626, size: 0x8, addend: 0x0, symName: __ZNK8cpptrace2v19formatter4impl5printEP7__sFILERKNS0_16stacktrace_frameENS0_6detail8optionalIbLi0EEEm, symObjAddr: 0x1DB8, symBinAddr: 0x7D178, symSize: 0x138 }
  - { offset: 0xE7CDF, size: 0x8, addend: 0x0, symName: __ZNK8cpptrace2v19formatter5printEP7__sFILERKNS0_16stacktrace_frameEb, symObjAddr: 0x1EF0, symBinAddr: 0x7D2B0, symSize: 0x34 }
  - { offset: 0xE7D9F, size: 0x8, addend: 0x0, symName: __ZNK8cpptrace2v19formatter5printEP7__sFILERKNS0_16stacktrace_frameEbm, symObjAddr: 0x1F24, symBinAddr: 0x7D2E4, symSize: 0x30 }
  - { offset: 0xE834D, size: 0x8, addend: 0x0, symName: __ZNSt3__110__function12__value_funcIFbRKN8cpptrace2v116stacktrace_frameEEE4swapB8ne180100ERS8_, symObjAddr: 0x25B0, symBinAddr: 0x7D7D4, symSize: 0x174 }
  - { offset: 0xE85EF, size: 0x8, addend: 0x0, symName: __ZN8cpptrace2v16detail8optionalINS0_16stacktrace_frameELi0EE4swapERS4_, symObjAddr: 0x3348, symBinAddr: 0x7E508, symSize: 0x2A0 }
  - { offset: 0xE913A, size: 0x8, addend: 0x0, symName: __ZNK8cpptrace2v19formatter4impl11write_frameERNSt3__113basic_ostreamIcNS3_11char_traitsIcEEEERKNS0_16stacktrace_frameENS2_13color_settingEm, symObjAddr: 0x3104, symBinAddr: 0x7E310, symSize: 0x1A0 }
  - { offset: 0xE952B, size: 0x8, addend: 0x0, symName: __ZN8cpptrace2v116stacktrace_frameD1Ev, symObjAddr: 0x30B8, symBinAddr: 0x7E2C4, symSize: 0x4C }
  - { offset: 0xE97B8, size: 0x8, addend: 0x0, symName: __ZN8cpptrace2v16detail8optionalINS0_16stacktrace_frameELi0EED1Ev, symObjAddr: 0x32A4, symBinAddr: 0x7E4B0, symSize: 0x58 }
  - { offset: 0xE9A8D, size: 0x8, addend: 0x0, symName: __ZNSt3__119basic_ostringstreamIcNS_11char_traitsIcEENS_9allocatorIcEEED0Ev, symObjAddr: 0x2B20, symBinAddr: 0x7DD44, symSize: 0x8C }
  - { offset: 0xE9C58, size: 0x8, addend: 0x0, symName: __ZTv0_n24_NSt3__119basic_ostringstreamIcNS_11char_traitsIcEENS_9allocatorIcEEED1Ev, symObjAddr: 0x2BAC, symBinAddr: 0x7DDD0, symSize: 0x8C }
  - { offset: 0xE9E34, size: 0x8, addend: 0x0, symName: __ZTv0_n24_NSt3__119basic_ostringstreamIcNS_11char_traitsIcEENS_9allocatorIcEEED0Ev, symObjAddr: 0x2C38, symBinAddr: 0x7DE5C, symSize: 0x94 }
  - { offset: 0xEA012, size: 0x8, addend: 0x0, symName: __ZNSt3__115basic_stringbufIcNS_11char_traitsIcEENS_9allocatorIcEEED1Ev, symObjAddr: 0x2CCC, symBinAddr: 0x7DEF0, symSize: 0x40 }
  - { offset: 0xEA193, size: 0x8, addend: 0x0, symName: __ZNSt3__115basic_stringbufIcNS_11char_traitsIcEENS_9allocatorIcEEED0Ev, symObjAddr: 0x2D0C, symBinAddr: 0x7DF30, symSize: 0x44 }
  - { offset: 0xEA43E, size: 0x8, addend: 0x0, symName: __ZNSt3__115basic_stringbufIcNS_11char_traitsIcEENS_9allocatorIcEEE7seekoffExNS_8ios_base7seekdirEj, symObjAddr: 0x2D50, symBinAddr: 0x7DF74, symSize: 0x100 }
  - { offset: 0xEA680, size: 0x8, addend: 0x0, symName: __ZNSt3__115basic_stringbufIcNS_11char_traitsIcEENS_9allocatorIcEEE9underflowEv, symObjAddr: 0x2E68, symBinAddr: 0x7E074, symSize: 0x50 }
  - { offset: 0xEA72D, size: 0x8, addend: 0x0, symName: __ZNSt3__115basic_stringbufIcNS_11char_traitsIcEENS_9allocatorIcEEE9pbackfailEi, symObjAddr: 0x2EB8, symBinAddr: 0x7E0C4, symSize: 0x6C }
  - { offset: 0xEA980, size: 0x8, addend: 0x0, symName: __ZNSt3__115basic_stringbufIcNS_11char_traitsIcEENS_9allocatorIcEEE8overflowEi, symObjAddr: 0x2F24, symBinAddr: 0x7E130, symSize: 0x194 }
  - { offset: 0xEAF52, size: 0x8, addend: 0x0, symName: __ZNK8cpptrace2v19formatter4impl13write_addressERNSt3__113basic_ostreamIcNS3_11char_traitsIcEEEERKNS0_16stacktrace_frameENS2_13color_settingE, symObjAddr: 0x35E8, symBinAddr: 0x7E7A8, symSize: 0x150 }
  - { offset: 0xEB280, size: 0x8, addend: 0x0, symName: __ZNK8cpptrace2v19formatter4impl12write_symbolERNSt3__113basic_ostreamIcNS3_11char_traitsIcEEEERKNS0_16stacktrace_frameENS2_13color_settingE, symObjAddr: 0x3738, symBinAddr: 0x7E8F8, symSize: 0x2A4 }
  - { offset: 0xEC005, size: 0x8, addend: 0x0, symName: __ZNK8cpptrace2v19formatter4impl21write_source_locationERNSt3__113basic_ostreamIcNS3_11char_traitsIcEEEERKNS0_16stacktrace_frameENS2_13color_settingE, symObjAddr: 0x39DC, symBinAddr: 0x7EB9C, symSize: 0x240 }
  - { offset: 0xECCAC, size: 0x8, addend: 0x0, symName: __ZZN8cpptrace2v18microfmt6detail6formatINSt3__116ostream_iteratorIccNS4_11char_traitsIcEEEEPKcEEvT_T0_SC_RKSt16initializer_listINS2_12format_valueEEENKUlvE0_clEv, symObjAddr: 0x3D70, symBinAddr: 0x7EF30, symSize: 0x300 }
  - { offset: 0xECFAF, size: 0x8, addend: 0x0, symName: __ZNK8cpptrace2v18microfmt6detail12format_value5writeINSt3__116ostream_iteratorIccNS5_11char_traitsIcEEEEEEvT_RKNS2_14format_optionsE, symObjAddr: 0x4070, symBinAddr: 0x7F230, symSize: 0x2DC }
  - { offset: 0xEE118, size: 0x8, addend: 0x0, symName: __ZNSt3__112basic_stringIcNS_11char_traitsIcEENS_9allocatorIcEEE26__erase_external_with_moveEmm, symObjAddr: 0x5158, symBinAddr: 0x7F8DC, symSize: 0x80 }
  - { offset: 0xEE702, size: 0x8, addend: 0x0, symName: __ZNK8cpptrace2v19formatter4impl15get_trace_startERKNS0_10stacktraceE, symObjAddr: 0x58F4, symBinAddr: 0x80078, symSize: 0x168 }
  - { offset: 0xEEC4C, size: 0x8, addend: 0x0, symName: __ZNSt3__111basic_regexIcNS_12regex_traitsIcEEE7__parseIPKcEET_S7_S7_, symObjAddr: 0x5B1C, symBinAddr: 0x801E0, symSize: 0x334 }
  - { offset: 0xEFD4D, size: 0x8, addend: 0x0, symName: __ZNSt3__111basic_regexIcNS_12regex_traitsIcEEE13__parse_egrepIPKcEET_S7_S7_, symObjAddr: 0x64B4, symBinAddr: 0x80B2C, symSize: 0x1A8 }
  - { offset: 0xF02E9, size: 0x8, addend: 0x0, symName: __ZNSt3__111basic_regexIcNS_12regex_traitsIcEEE24__parse_extended_reg_expIPKcEET_S7_S7_, symObjAddr: 0x61A0, symBinAddr: 0x80818, symSize: 0x16C }
  - { offset: 0xF063F, size: 0x8, addend: 0x0, symName: __ZNSt3__111basic_regexIcNS_12regex_traitsIcEEE12__parse_grepIPKcEET_S7_S7_, symObjAddr: 0x630C, symBinAddr: 0x80984, symSize: 0x1A8 }
  - { offset: 0xF0653, size: 0x8, addend: 0x0, symName: __ZNSt3__111basic_regexIcNS_12regex_traitsIcEEE19__parse_alternativeIPKcEET_S7_S7_, symObjAddr: 0x6880, symBinAddr: 0x80E04, symSize: 0xA0 }
  - { offset: 0xF075D, size: 0x8, addend: 0x0, symName: __ZNSt3__111basic_regexIcNS_12regex_traitsIcEEE21__parse_basic_reg_expIPKcEET_S7_S7_, symObjAddr: 0x603C, symBinAddr: 0x806B4, symSize: 0x164 }
  - { offset: 0xF0AF0, size: 0x8, addend: 0x0, symName: __ZNSt3__111basic_regexIcNS_12regex_traitsIcEEE24__parse_extended_reg_expIPKcEET_S7_S7_, symObjAddr: 0x61A0, symBinAddr: 0x80818, symSize: 0x16C }
  - { offset: 0xF0B04, size: 0x8, addend: 0x0, symName: __ZNSt3__111basic_regexIcNS_12regex_traitsIcEEE12__parse_grepIPKcEET_S7_S7_, symObjAddr: 0x630C, symBinAddr: 0x80984, symSize: 0x1A8 }
  - { offset: 0xF10E7, size: 0x8, addend: 0x0, symName: __ZNSt3__111basic_regexIcNS_12regex_traitsIcEEE16__parse_ecma_expIPKcEET_S7_S7_, symObjAddr: 0x5E9C, symBinAddr: 0x80514, symSize: 0x1A0 }
  - { offset: 0xF1552, size: 0x8, addend: 0x0, symName: __ZNSt3__111basic_regexIcNS_12regex_traitsIcEEE12__parse_termIPKcEET_S7_S7_, symObjAddr: 0x6920, symBinAddr: 0x80EA4, symSize: 0x94 }
  - { offset: 0xF17F6, size: 0x8, addend: 0x0, symName: __ZNSt3__111basic_regexIcNS_12regex_traitsIcEEE18__parse_nondupl_REIPKcEET_S7_S7_, symObjAddr: 0xE1D0, symBinAddr: 0x85390, symSize: 0x1E0 }
  - { offset: 0xF1D6C, size: 0x8, addend: 0x0, symName: __ZNSt3__111basic_regexIcNS_12regex_traitsIcEEE22__parse_RE_dupl_symbolIPKcEET_S7_S7_PNS_16__owns_one_stateIcEEjj, symObjAddr: 0xE3B0, symBinAddr: 0x85570, symSize: 0x240 }
  - { offset: 0xF1D80, size: 0x8, addend: 0x0, symName: __ZNSt3__111basic_regexIcNS_12regex_traitsIcEEE22__parse_RE_dupl_symbolIPKcEET_S7_S7_PNS_16__owns_one_stateIcEEjj, symObjAddr: 0xE3B0, symBinAddr: 0x85570, symSize: 0x240 }
  - { offset: 0xF231E, size: 0x8, addend: 0x0, symName: __ZNSt3__111basic_regexIcNS_12regex_traitsIcEEE32__parse_one_char_or_coll_elem_REIPKcEET_S7_S7_, symObjAddr: 0xE5F0, symBinAddr: 0x857B0, symSize: 0x120 }
  - { offset: 0xF2377, size: 0x8, addend: 0x0, symName: __ZNSt3__111basic_regexIcNS_12regex_traitsIcEEE22__parse_ERE_expressionIPKcEET_S7_S7_, symObjAddr: 0xE838, symBinAddr: 0x859B8, symSize: 0x284 }
  - { offset: 0xF2853, size: 0x8, addend: 0x0, symName: __ZNSt3__111basic_regexIcNS_12regex_traitsIcEEE20__parse_ORD_CHAR_EREIPKcEET_S7_S7_, symObjAddr: 0xEABC, symBinAddr: 0x85C3C, symSize: 0x6C }
  - { offset: 0xF2889, size: 0x8, addend: 0x0, symName: __ZNSt3__111__end_stateIcED1Ev, symObjAddr: 0x66A8, symBinAddr: 0x80CD4, symSize: 0x4 }
  - { offset: 0xF28B5, size: 0x8, addend: 0x0, symName: __ZNSt3__111__end_stateIcED0Ev, symObjAddr: 0x66AC, symBinAddr: 0x80CD8, symSize: 0x4 }
  - { offset: 0xF28F2, size: 0x8, addend: 0x0, symName: __ZNSt3__120__shared_ptr_pointerIPNS_13__empty_stateIcEENS_10shared_ptrIS2_E27__shared_ptr_default_deleteIS2_S2_EENS_9allocatorIS2_EEED1Ev, symObjAddr: 0x66C4, symBinAddr: 0x80CDC, symSize: 0x4 }
  - { offset: 0xF2916, size: 0x8, addend: 0x0, symName: __ZNSt3__120__shared_ptr_pointerIPNS_13__empty_stateIcEENS_10shared_ptrIS2_E27__shared_ptr_default_deleteIS2_S2_EENS_9allocatorIS2_EEED1Ev, symObjAddr: 0x66C4, symBinAddr: 0x80CDC, symSize: 0x4 }
  - { offset: 0xF294D, size: 0x8, addend: 0x0, symName: __ZNSt3__120__shared_ptr_pointerIPNS_13__empty_stateIcEENS_10shared_ptrIS2_E27__shared_ptr_default_deleteIS2_S2_EENS_9allocatorIS2_EEED0Ev, symObjAddr: 0x66C8, symBinAddr: 0x80CE0, symSize: 0x14 }
  - { offset: 0xF29B4, size: 0x8, addend: 0x0, symName: __ZNSt3__113__empty_stateIcED1Ev, symObjAddr: 0x675C, symBinAddr: 0x80CF4, symSize: 0x44 }
  - { offset: 0xF2A21, size: 0x8, addend: 0x0, symName: __ZNSt3__113__empty_stateIcED0Ev, symObjAddr: 0x67A0, symBinAddr: 0x80D38, symSize: 0x44 }
  - { offset: 0xF2AAD, size: 0x8, addend: 0x0, symName: __ZNSt3__116__owns_one_stateIcED1Ev, symObjAddr: 0x67F8, symBinAddr: 0x80D7C, symSize: 0x44 }
  - { offset: 0xF2B17, size: 0x8, addend: 0x0, symName: __ZNSt3__116__owns_one_stateIcED0Ev, symObjAddr: 0x683C, symBinAddr: 0x80DC0, symSize: 0x44 }
  - { offset: 0xF2BED, size: 0x8, addend: 0x0, symName: __ZNSt3__111basic_regexIcNS_12regex_traitsIcEEE23__parse_ERE_dupl_symbolIPKcEET_S7_S7_PNS_16__owns_one_stateIcEEjj, symObjAddr: 0x6F14, symBinAddr: 0x81498, symSize: 0x360 }
  - { offset: 0xF314A, size: 0x8, addend: 0x0, symName: __ZNSt3__111basic_regexIcNS_12regex_traitsIcEEE17__parse_assertionIPKcEET_S7_S7_, symObjAddr: 0x69B4, symBinAddr: 0x80F38, symSize: 0x2C4 }
  - { offset: 0xF37A4, size: 0x8, addend: 0x0, symName: __ZNSt3__111basic_regexIcNS_12regex_traitsIcEEE12__parse_atomIPKcEET_S7_S7_, symObjAddr: 0x6C78, symBinAddr: 0x811FC, symSize: 0x29C }
  - { offset: 0xF3C72, size: 0x8, addend: 0x0, symName: __ZNSt3__111basic_regexIcNS_12regex_traitsIcEEE23__parse_ERE_dupl_symbolIPKcEET_S7_S7_PNS_16__owns_one_stateIcEEjj, symObjAddr: 0x6F14, symBinAddr: 0x81498, symSize: 0x360 }
  - { offset: 0xF3DC0, size: 0x8, addend: 0x0, symName: __ZNSt3__111basic_regexIcNS_12regex_traitsIcEEE16__push_lookaheadERKS3_bj, symObjAddr: 0x72E0, symBinAddr: 0x817F8, symSize: 0xB0 }
  - { offset: 0xF4229, size: 0x8, addend: 0x0, symName: __ZNSt3__111basic_regexIcNS_12regex_traitsIcEEE26__parse_bracket_expressionIPKcEET_S7_S7_, symObjAddr: 0x8794, symBinAddr: 0x8235C, symSize: 0x150 }
  - { offset: 0xF4416, size: 0x8, addend: 0x0, symName: __ZNSt3__111basic_regexIcNS_12regex_traitsIcEEE22__parse_decimal_escapeIPKcEET_S7_S7_, symObjAddr: 0x8A68, symBinAddr: 0x82598, symSize: 0xBC }
  - { offset: 0xF44B7, size: 0x8, addend: 0x0, symName: __ZNSt3__111basic_regexIcNS_12regex_traitsIcEEE30__parse_character_class_escapeIPKcEET_S7_S7_, symObjAddr: 0x8B24, symBinAddr: 0x82654, symSize: 0x1F8 }
  - { offset: 0xF44CB, size: 0x8, addend: 0x0, symName: __ZNSt3__111basic_regexIcNS_12regex_traitsIcEEE30__parse_character_class_escapeIPKcEET_S7_S7_, symObjAddr: 0x8B24, symBinAddr: 0x82654, symSize: 0x1F8 }
  - { offset: 0xF496E, size: 0x8, addend: 0x0, symName: __ZNSt3__111basic_regexIcNS_12regex_traitsIcEEE24__parse_character_escapeIPKcEET_S7_S7_PNS_12basic_stringIcNS_11char_traitsIcEENS_9allocatorIcEEEE, symObjAddr: 0x8D1C, symBinAddr: 0x8284C, symSize: 0x3D0 }
  - { offset: 0xF5651, size: 0x8, addend: 0x0, symName: __ZNSt3__111basic_regexIcNS_12regex_traitsIcEEE11__push_charEc, symObjAddr: 0x90EC, symBinAddr: 0x82C1C, symSize: 0x144 }
  - { offset: 0xF5665, size: 0x8, addend: 0x0, symName: __ZNSt3__111basic_regexIcNS_12regex_traitsIcEEE25__parse_pattern_characterIPKcEET_S7_S7_, symObjAddr: 0x8930, symBinAddr: 0x824AC, symSize: 0x64 }
  - { offset: 0xF582F, size: 0x8, addend: 0x0, symName: __ZNSt3__111basic_regexIcNS_12regex_traitsIcEEE11__push_loopEmmPNS_16__owns_one_stateIcEEmmb, symObjAddr: 0xDA00, symBinAddr: 0x850A8, symSize: 0x138 }
  - { offset: 0xF5D84, size: 0x8, addend: 0x0, symName: __ZNSt3__120__l_anchor_multilineIcED1Ev, symObjAddr: 0x73DC, symBinAddr: 0x818A8, symSize: 0x44 }
  - { offset: 0xF5E0E, size: 0x8, addend: 0x0, symName: __ZNSt3__120__l_anchor_multilineIcED0Ev, symObjAddr: 0x7420, symBinAddr: 0x818EC, symSize: 0x44 }
  - { offset: 0xF5EC2, size: 0x8, addend: 0x0, symName: __ZNSt3__120__r_anchor_multilineIcED1Ev, symObjAddr: 0x74C4, symBinAddr: 0x81930, symSize: 0x44 }
  - { offset: 0xF5F4C, size: 0x8, addend: 0x0, symName: __ZNSt3__120__r_anchor_multilineIcED0Ev, symObjAddr: 0x7508, symBinAddr: 0x81974, symSize: 0x44 }
  - { offset: 0xF6000, size: 0x8, addend: 0x0, symName: __ZNSt3__115__word_boundaryIcNS_12regex_traitsIcEEED1Ev, symObjAddr: 0x759C, symBinAddr: 0x819B8, symSize: 0x58 }
  - { offset: 0xF60C8, size: 0x8, addend: 0x0, symName: __ZNSt3__115__word_boundaryIcNS_12regex_traitsIcEEED0Ev, symObjAddr: 0x75F4, symBinAddr: 0x81A10, symSize: 0x58 }
  - { offset: 0xF6218, size: 0x8, addend: 0x0, symName: __ZNSt3__111__lookaheadIcNS_12regex_traitsIcEEED1Ev, symObjAddr: 0x7770, symBinAddr: 0x81A68, symSize: 0x98 }
  - { offset: 0xF63CE, size: 0x8, addend: 0x0, symName: __ZNSt3__111__lookaheadIcNS_12regex_traitsIcEEED0Ev, symObjAddr: 0x7808, symBinAddr: 0x81B00, symSize: 0x98 }
  - { offset: 0xF6749, size: 0x8, addend: 0x0, symName: __ZNKSt3__111basic_regexIcNS_12regex_traitsIcEEE21__match_at_start_ecmaINS_9allocatorINS_9sub_matchIPKcEEEEEEbS8_S8_RNS_13match_resultsIS8_T_EENS_15regex_constants15match_flag_typeEb, symObjAddr: 0x7A28, symBinAddr: 0x81B98, symSize: 0x428 }
  - { offset: 0xF80CD, size: 0x8, addend: 0x0, symName: __ZNSt3__16vectorINS_7__stateIcEENS_9allocatorIS2_EEE21__push_back_slow_pathIS2_EEPS2_OT_, symObjAddr: 0x8148, symBinAddr: 0x82000, symSize: 0x1E4 }
  - { offset: 0xF9186, size: 0x8, addend: 0x0, symName: __ZNSt3__17__stateIcEC2ERKS1_, symObjAddr: 0x861C, symBinAddr: 0x821E4, symSize: 0x178 }
  - { offset: 0xF9864, size: 0x8, addend: 0x0, symName: __ZNSt3__17__stateIcED1Ev, symObjAddr: 0x7FF0, symBinAddr: 0x81FC0, symSize: 0x40 }
  - { offset: 0xF9F27, size: 0x8, addend: 0x0, symName: __ZNSt3__17__stateIcED1Ev, symObjAddr: 0x7FF0, symBinAddr: 0x81FC0, symSize: 0x40 }
  - { offset: 0xFA6EC, size: 0x8, addend: 0x0, symName: __ZNSt3__17__stateIcEC2ERKS1_, symObjAddr: 0x861C, symBinAddr: 0x821E4, symSize: 0x178 }
  - { offset: 0xFB542, size: 0x8, addend: 0x0, symName: __ZNSt3__111basic_regexIcNS_12regex_traitsIcEEE23__parse_expression_termIPKcEET_S7_S7_PNS_20__bracket_expressionIcS2_EE, symObjAddr: 0xB398, symBinAddr: 0x838F4, symSize: 0x4C0 }
  - { offset: 0xFC7F1, size: 0x8, addend: 0x0, symName: __ZNSt3__111basic_regexIcNS_12regex_traitsIcEEE11__push_charEc, symObjAddr: 0x90EC, symBinAddr: 0x82C1C, symSize: 0x144 }
  - { offset: 0xFCBED, size: 0x8, addend: 0x0, symName: __ZNSt3__123__match_any_but_newlineIcED1Ev, symObjAddr: 0x8994, symBinAddr: 0x82510, symSize: 0x44 }
  - { offset: 0xFCC77, size: 0x8, addend: 0x0, symName: __ZNSt3__123__match_any_but_newlineIcED0Ev, symObjAddr: 0x89D8, symBinAddr: 0x82554, symSize: 0x44 }
  - { offset: 0xFCD0E, size: 0x8, addend: 0x0, symName: __ZNSt3__111basic_regexIcNS_12regex_traitsIcEEE15__push_back_refEi, symObjAddr: 0x927C, symBinAddr: 0x82D60, symSize: 0xCC }
  - { offset: 0xFD33C, size: 0x8, addend: 0x0, symName: __ZNSt3__118__match_char_icaseIcNS_12regex_traitsIcEEED1Ev, symObjAddr: 0x9348, symBinAddr: 0x82E2C, symSize: 0x58 }
  - { offset: 0xFD404, size: 0x8, addend: 0x0, symName: __ZNSt3__118__match_char_icaseIcNS_12regex_traitsIcEEED0Ev, symObjAddr: 0x93A0, symBinAddr: 0x82E84, symSize: 0x58 }
  - { offset: 0xFD4F6, size: 0x8, addend: 0x0, symName: __ZNSt3__120__match_char_collateIcNS_12regex_traitsIcEEED1Ev, symObjAddr: 0x9470, symBinAddr: 0x82EDC, symSize: 0x58 }
  - { offset: 0xFD5BE, size: 0x8, addend: 0x0, symName: __ZNSt3__120__match_char_collateIcNS_12regex_traitsIcEEED0Ev, symObjAddr: 0x94C8, symBinAddr: 0x82F34, symSize: 0x58 }
  - { offset: 0xFD6B0, size: 0x8, addend: 0x0, symName: __ZNSt3__112__match_charIcED1Ev, symObjAddr: 0x9568, symBinAddr: 0x82F8C, symSize: 0x44 }
  - { offset: 0xFD73A, size: 0x8, addend: 0x0, symName: __ZNSt3__112__match_charIcED0Ev, symObjAddr: 0x95AC, symBinAddr: 0x82FD0, symSize: 0x44 }
  - { offset: 0xFD7EE, size: 0x8, addend: 0x0, symName: __ZNSt3__116__back_ref_icaseIcNS_12regex_traitsIcEEED1Ev, symObjAddr: 0x9638, symBinAddr: 0x83014, symSize: 0x58 }
  - { offset: 0xFD8B6, size: 0x8, addend: 0x0, symName: __ZNSt3__116__back_ref_icaseIcNS_12regex_traitsIcEEED0Ev, symObjAddr: 0x9690, symBinAddr: 0x8306C, symSize: 0x58 }
  - { offset: 0xFD9A8, size: 0x8, addend: 0x0, symName: __ZNSt3__118__back_ref_collateIcNS_12regex_traitsIcEEED1Ev, symObjAddr: 0x97CC, symBinAddr: 0x830C4, symSize: 0x58 }
  - { offset: 0xFDA70, size: 0x8, addend: 0x0, symName: __ZNSt3__118__back_ref_collateIcNS_12regex_traitsIcEEED0Ev, symObjAddr: 0x9824, symBinAddr: 0x8311C, symSize: 0x58 }
  - { offset: 0xFDB62, size: 0x8, addend: 0x0, symName: __ZNSt3__110__back_refIcED1Ev, symObjAddr: 0x990C, symBinAddr: 0x83174, symSize: 0x44 }
  - { offset: 0xFDBEC, size: 0x8, addend: 0x0, symName: __ZNSt3__110__back_refIcED0Ev, symObjAddr: 0x9950, symBinAddr: 0x831B8, symSize: 0x44 }
  - { offset: 0xFE76E, size: 0x8, addend: 0x0, symName: __ZNSt3__120__bracket_expressionIcNS_12regex_traitsIcEEED1Ev, symObjAddr: 0xA120, symBinAddr: 0x831FC, symSize: 0x4 }
  - { offset: 0xFE792, size: 0x8, addend: 0x0, symName: __ZNSt3__120__bracket_expressionIcNS_12regex_traitsIcEEED1Ev, symObjAddr: 0xA120, symBinAddr: 0x831FC, symSize: 0x4 }
  - { offset: 0xFE7A5, size: 0x8, addend: 0x0, symName: __ZNSt3__120__bracket_expressionIcNS_12regex_traitsIcEEED2Ev, symObjAddr: 0xAAC0, symBinAddr: 0x83260, symSize: 0x140 }
  - { offset: 0xFF28F, size: 0x8, addend: 0x0, symName: __ZNSt3__120__bracket_expressionIcNS_12regex_traitsIcEEED0Ev, symObjAddr: 0xA124, symBinAddr: 0x83200, symSize: 0x14 }
  - { offset: 0xFF49F, size: 0x8, addend: 0x0, symName: __ZNKSt3__112regex_traitsIcE20__lookup_collatenameIPcEENS_12basic_stringIcNS_11char_traitsIcEENS_9allocatorIcEEEET_SA_c, symObjAddr: 0xAD2C, symBinAddr: 0x834CC, symSize: 0x294 }
  - { offset: 0x1001F6, size: 0x8, addend: 0x0, symName: __ZNKSt3__112regex_traitsIcE9transformIPcEENS_12basic_stringIcNS_11char_traitsIcEENS_9allocatorIcEEEET_SA_, symObjAddr: 0xAC00, symBinAddr: 0x833A0, symSize: 0x12C }
  - { offset: 0x100815, size: 0x8, addend: 0x0, symName: __ZNKSt3__112regex_traitsIcE19__transform_primaryIPcEENS_12basic_stringIcNS_11char_traitsIcEENS_9allocatorIcEEEET_SA_c, symObjAddr: 0xB1A4, symBinAddr: 0x83760, symSize: 0x194 }
  - { offset: 0x100FBD, size: 0x8, addend: 0x0, symName: __ZNSt3__14pairINS_12basic_stringIcNS_11char_traitsIcEENS_9allocatorIcEEEES6_ED1Ev, symObjAddr: 0xAA74, symBinAddr: 0x83214, symSize: 0x4C }
  - { offset: 0x1016E6, size: 0x8, addend: 0x0, symName: __ZNKSt3__112regex_traitsIcE19__transform_primaryIPcEENS_12basic_stringIcNS_11char_traitsIcEENS_9allocatorIcEEEET_SA_c, symObjAddr: 0xB1A4, symBinAddr: 0x83760, symSize: 0x194 }
  - { offset: 0x101C71, size: 0x8, addend: 0x0, symName: __ZNSt3__111basic_regexIcNS_12regex_traitsIcEEE25__parse_equivalence_classIPKcEET_S7_S7_PNS_20__bracket_expressionIcS2_EE, symObjAddr: 0xB858, symBinAddr: 0x83DB4, symSize: 0x250 }
  - { offset: 0x10283A, size: 0x8, addend: 0x0, symName: __ZNSt3__111basic_regexIcNS_12regex_traitsIcEEE24__parse_collating_symbolIPKcEET_S7_S7_RNS_12basic_stringIcNS_11char_traitsIcEENS_9allocatorIcEEEE, symObjAddr: 0xBAA8, symBinAddr: 0x84004, symSize: 0xEC }
  - { offset: 0x102C11, size: 0x8, addend: 0x0, symName: __ZNSt3__111basic_regexIcNS_12regex_traitsIcEEE20__parse_class_escapeIPKcEET_S7_S7_RNS_12basic_stringIcNS_11char_traitsIcEENS_9allocatorIcEEEEPNS_20__bracket_expressionIcS2_EE, symObjAddr: 0xBB94, symBinAddr: 0x840F0, symSize: 0x140 }
  - { offset: 0x102C25, size: 0x8, addend: 0x0, symName: __ZNSt3__111basic_regexIcNS_12regex_traitsIcEEE18__parse_awk_escapeIPKcEET_S7_S7_PNS_12basic_stringIcNS_11char_traitsIcEENS_9allocatorIcEEEE, symObjAddr: 0xBCD4, symBinAddr: 0x84230, symSize: 0x2BC }
  - { offset: 0x1034FD, size: 0x8, addend: 0x0, symName: __ZNKSt3__112regex_traitsIcE18__lookup_classnameIPKcEEjT_S5_bc, symObjAddr: 0xCF68, symBinAddr: 0x84B28, symSize: 0x148 }
  - { offset: 0x103BF6, size: 0x8, addend: 0x0, symName: __ZNSt3__111basic_regexIcNS_12regex_traitsIcEEE20__parse_class_escapeIPKcEET_S7_S7_RNS_12basic_stringIcNS_11char_traitsIcEENS_9allocatorIcEEEEPNS_20__bracket_expressionIcS2_EE, symObjAddr: 0xBB94, symBinAddr: 0x840F0, symSize: 0x140 }
  - { offset: 0x103FAB, size: 0x8, addend: 0x0, symName: __ZNSt3__111basic_regexIcNS_12regex_traitsIcEEE18__parse_awk_escapeIPKcEET_S7_S7_PNS_12basic_stringIcNS_11char_traitsIcEENS_9allocatorIcEEEE, symObjAddr: 0xBCD4, symBinAddr: 0x84230, symSize: 0x2BC }
  - { offset: 0x1055EE, size: 0x8, addend: 0x0, symName: __ZNKSt3__112regex_traitsIcE20__lookup_collatenameIPKcEENS_12basic_stringIcNS_11char_traitsIcEENS_9allocatorIcEEEET_SB_c, symObjAddr: 0xC868, symBinAddr: 0x844EC, symSize: 0x294 }
  - { offset: 0x106345, size: 0x8, addend: 0x0, symName: __ZNKSt3__112regex_traitsIcE19__transform_primaryINS_11__wrap_iterIPcEEEENS_12basic_stringIcNS_11char_traitsIcEENS_9allocatorIcEEEET_SC_c, symObjAddr: 0xCAFC, symBinAddr: 0x84780, symSize: 0x1E0 }
  - { offset: 0x106B0F, size: 0x8, addend: 0x0, symName: __ZNSt3__16vectorINS_12basic_stringIcNS_11char_traitsIcEENS_9allocatorIcEEEENS4_IS6_EEE21__push_back_slow_pathIRKS6_EEPS6_OT_, symObjAddr: 0xCCDC, symBinAddr: 0x84960, symSize: 0x1C8 }
  - { offset: 0x107899, size: 0x8, addend: 0x0, symName: __ZNKSt3__112regex_traitsIcE9transformINS_11__wrap_iterIPcEEEENS_12basic_stringIcNS_11char_traitsIcEENS_9allocatorIcEEEET_SC_, symObjAddr: 0xD4EC, symBinAddr: 0x84C70, symSize: 0x178 }
  - { offset: 0x107A41, size: 0x8, addend: 0x0, symName: __ZNKSt3__112regex_traitsIcE9transformINS_11__wrap_iterIPcEEEENS_12basic_stringIcNS_11char_traitsIcEENS_9allocatorIcEEEET_SC_, symObjAddr: 0xD4EC, symBinAddr: 0x84C70, symSize: 0x178 }
  - { offset: 0x1080A6, size: 0x8, addend: 0x0, symName: __ZNSt3__16vectorINS_4pairINS_12basic_stringIcNS_11char_traitsIcEENS_9allocatorIcEEEES7_EENS5_IS8_EEE21__push_back_slow_pathIS8_EEPS8_OT_, symObjAddr: 0xD6B0, symBinAddr: 0x84DE8, symSize: 0x1B0 }
  - { offset: 0x108C29, size: 0x8, addend: 0x0, symName: __ZNSt3__128__begin_marked_subexpressionIcED1Ev, symObjAddr: 0xD888, symBinAddr: 0x84F98, symSize: 0x44 }
  - { offset: 0x1094A9, size: 0x8, addend: 0x0, symName: __ZNSt3__128__begin_marked_subexpressionIcED1Ev, symObjAddr: 0xD888, symBinAddr: 0x84F98, symSize: 0x44 }
  - { offset: 0x109533, size: 0x8, addend: 0x0, symName: __ZNSt3__128__begin_marked_subexpressionIcED0Ev, symObjAddr: 0xD8CC, symBinAddr: 0x84FDC, symSize: 0x44 }
  - { offset: 0x1095E7, size: 0x8, addend: 0x0, symName: __ZNSt3__126__end_marked_subexpressionIcED1Ev, symObjAddr: 0xD940, symBinAddr: 0x85020, symSize: 0x44 }
  - { offset: 0x109671, size: 0x8, addend: 0x0, symName: __ZNSt3__126__end_marked_subexpressionIcED0Ev, symObjAddr: 0xD984, symBinAddr: 0x85064, symSize: 0x44 }
  - { offset: 0x1099B2, size: 0x8, addend: 0x0, symName: __ZNSt3__16__loopIcED0Ev, symObjAddr: 0xDC38, symBinAddr: 0x85248, symSize: 0x68 }
  - { offset: 0x109AAD, size: 0x8, addend: 0x0, symName: __ZNSt3__16__loopIcED1Ev, symObjAddr: 0xDBD0, symBinAddr: 0x851E0, symSize: 0x68 }
  - { offset: 0x109B62, size: 0x8, addend: 0x0, symName: __ZNSt3__117__repeat_one_loopIcED1Ev, symObjAddr: 0xE04C, symBinAddr: 0x852B0, symSize: 0x4 }
  - { offset: 0x109B8E, size: 0x8, addend: 0x0, symName: __ZNSt3__117__repeat_one_loopIcED0Ev, symObjAddr: 0xE050, symBinAddr: 0x852B4, symSize: 0x4 }
  - { offset: 0x109BD7, size: 0x8, addend: 0x0, symName: __ZNSt3__111__alternateIcED1Ev, symObjAddr: 0xE068, symBinAddr: 0x852B8, symSize: 0x68 }
  - { offset: 0x109C8C, size: 0x8, addend: 0x0, symName: __ZNSt3__111__alternateIcED0Ev, symObjAddr: 0xE0D0, symBinAddr: 0x85320, symSize: 0x68 }
  - { offset: 0x109D4E, size: 0x8, addend: 0x0, symName: __ZNSt3__121__empty_non_own_stateIcED1Ev, symObjAddr: 0xE168, symBinAddr: 0x85388, symSize: 0x4 }
  - { offset: 0x109D7A, size: 0x8, addend: 0x0, symName: __ZNSt3__121__empty_non_own_stateIcED0Ev, symObjAddr: 0xE16C, symBinAddr: 0x8538C, symSize: 0x4 }
  - { offset: 0x109EAB, size: 0x8, addend: 0x0, symName: __ZNSt3__111basic_regexIcNS_12regex_traitsIcEEE32__parse_one_char_or_coll_elem_REIPKcEET_S7_S7_, symObjAddr: 0xE5F0, symBinAddr: 0x857B0, symSize: 0x120 }
  - { offset: 0x10A22F, size: 0x8, addend: 0x0, symName: __ZNSt3__111__match_anyIcED1Ev, symObjAddr: 0xE710, symBinAddr: 0x858D0, symSize: 0x44 }
  - { offset: 0x10A2B9, size: 0x8, addend: 0x0, symName: __ZNSt3__111__match_anyIcED0Ev, symObjAddr: 0xE754, symBinAddr: 0x85914, symSize: 0x44 }
  - { offset: 0x10A350, size: 0x8, addend: 0x0, symName: __ZNSt3__111basic_regexIcNS_12regex_traitsIcEEE15__test_back_refEc, symObjAddr: 0xE7D8, symBinAddr: 0x85958, symSize: 0x60 }
  - { offset: 0x10A427, size: 0x8, addend: 0x0, symName: __ZNSt3__111basic_regexIcNS_12regex_traitsIcEEE22__parse_ERE_expressionIPKcEET_S7_S7_, symObjAddr: 0xE838, symBinAddr: 0x859B8, symSize: 0x284 }
  - { offset: 0x10A477, size: 0x8, addend: 0x0, symName: __ZNSt3__111basic_regexIcNS_12regex_traitsIcEEE20__parse_ORD_CHAR_EREIPKcEET_S7_S7_, symObjAddr: 0xEABC, symBinAddr: 0x85C3C, symSize: 0x6C }
  - { offset: 0x10A4D9, size: 0x8, addend: 0x0, symName: __ZNSt3__111basic_regexIcNS_12regex_traitsIcEEE23__parse_QUOTED_CHAR_EREIPKcEET_S7_S7_, symObjAddr: 0xEB28, symBinAddr: 0x85CA8, symSize: 0xB4 }
  - { offset: 0x10C319, size: 0x8, addend: 0x0, symName: __ZN8cpptrace2v16detail17current_log_levelE, symObjAddr: 0x1C0C, symBinAddr: 0xB1000, symSize: 0x0 }
  - { offset: 0x10C327, size: 0x8, addend: 0x0, symName: __ZN8cpptrace2v16detail12log_callbackEv, symObjAddr: 0xCC, symBinAddr: 0x85E28, symSize: 0x7C }
  - { offset: 0x10C347, size: 0x8, addend: 0x0, symName: __ZZN8cpptrace2v16detail12log_callbackEvE8callback, symObjAddr: 0x38160, symBinAddr: 0xB1410, symSize: 0x0 }
  - { offset: 0x10C4AC, size: 0x8, addend: 0x0, symName: __ZN8cpptrace2v16detail19default_null_loggerENS0_9log_levelEPKc, symObjAddr: 0x0, symBinAddr: 0x85D5C, symSize: 0x4 }
  - { offset: 0x10C4D5, size: 0x8, addend: 0x0, symName: __ZN8cpptrace2v16detail21default_stderr_loggerENS0_9log_levelEPKc, symObjAddr: 0x4, symBinAddr: 0x85D60, symSize: 0xA4 }
  - { offset: 0x10C651, size: 0x8, addend: 0x0, symName: __ZN8cpptrace2v16detail6do_logENS0_9log_levelEPKc, symObjAddr: 0x194, symBinAddr: 0x85EF0, symSize: 0xDC }
  - { offset: 0x10C8CF, size: 0x8, addend: 0x0, symName: __ZN8cpptrace2v16detail3log5errorEPKc, symObjAddr: 0x270, symBinAddr: 0x85FCC, symSize: 0xC }
  - { offset: 0x10C8DF, size: 0x8, addend: 0x0, symName: __ZN8cpptrace2v16detail3log5errorEPKc, symObjAddr: 0x270, symBinAddr: 0x85FCC, symSize: 0xC }
  - { offset: 0x10C924, size: 0x8, addend: 0x0, symName: __ZN8cpptrace2v16detail3log4warnEPKc, symObjAddr: 0x27C, symBinAddr: 0x85FD8, symSize: 0xC }
  - { offset: 0x10C969, size: 0x8, addend: 0x0, symName: __ZN8cpptrace2v16detail3log4infoEPKc, symObjAddr: 0x288, symBinAddr: 0x85FE4, symSize: 0xC }
  - { offset: 0x10C9AE, size: 0x8, addend: 0x0, symName: __ZN8cpptrace2v16detail3log5debugEPKc, symObjAddr: 0x294, symBinAddr: 0x85FF0, symSize: 0xC }
  - { offset: 0x10E232, size: 0x8, addend: 0x0, symName: __ZN8cpptrace2v19to_stringENS0_9log_levelE, symObjAddr: 0xA8, symBinAddr: 0x85E04, symSize: 0x24 }
  - { offset: 0x10E251, size: 0x8, addend: 0x0, symName: __ZN8cpptrace2v113set_log_levelENS0_9log_levelE, symObjAddr: 0x2A0, symBinAddr: 0x85FFC, symSize: 0x10 }
  - { offset: 0x10E27D, size: 0x8, addend: 0x0, symName: __ZN8cpptrace2v113set_log_levelENS0_9log_levelE, symObjAddr: 0x2A0, symBinAddr: 0x85FFC, symSize: 0x10 }
  - { offset: 0x10E2A4, size: 0x8, addend: 0x0, symName: __ZN8cpptrace2v113set_log_levelENS0_9log_levelE, symObjAddr: 0x2A0, symBinAddr: 0x85FFC, symSize: 0x10 }
  - { offset: 0x10E2D2, size: 0x8, addend: 0x0, symName: __ZN8cpptrace2v113set_log_levelENS0_9log_levelE, symObjAddr: 0x2A0, symBinAddr: 0x85FFC, symSize: 0x10 }
  - { offset: 0x10E300, size: 0x8, addend: 0x0, symName: __ZN8cpptrace2v116set_log_callbackENSt3__18functionIFvNS0_9log_levelEPKcEEE, symObjAddr: 0x2B0, symBinAddr: 0x8600C, symSize: 0xFC }
  - { offset: 0x10E52A, size: 0x8, addend: 0x0, symName: __ZN8cpptrace2v125use_default_stderr_loggerEv, symObjAddr: 0x3AC, symBinAddr: 0x86108, symSize: 0x110 }
  - { offset: 0x115D4C, size: 0x8, addend: 0x0, symName: __ZNSt3__18functionIFvN8cpptrace2v19log_levelEPKcEED1Ev, symObjAddr: 0x148, symBinAddr: 0x85EA4, symSize: 0x4C }
  - { offset: 0x115FC8, size: 0x8, addend: 0x0, symName: __ZNSt3__110__function12__value_funcIFvN8cpptrace2v19log_levelEPKcEE4swapB8ne180100ERS8_, symObjAddr: 0x185C, symBinAddr: 0x862E0, symSize: 0x174 }
  - { offset: 0x117383, size: 0x8, addend: 0x0, symName: __ZNSt3__110__function6__funcIPFvN8cpptrace2v19log_levelEPKcENS_9allocatorIS8_EES7_ED1Ev, symObjAddr: 0x1748, symBinAddr: 0x86218, symSize: 0x4 }
  - { offset: 0x1173AE, size: 0x8, addend: 0x0, symName: __ZNSt3__110__function6__funcIPFvN8cpptrace2v19log_levelEPKcENS_9allocatorIS8_EES7_ED0Ev, symObjAddr: 0x174C, symBinAddr: 0x8621C, symSize: 0x4 }
  - { offset: 0x1175AF, size: 0x8, addend: 0x0, symName: __ZNKSt3__110__function6__funcIPFvN8cpptrace2v19log_levelEPKcENS_9allocatorIS8_EES7_E7__cloneEv, symObjAddr: 0x1750, symBinAddr: 0x86220, symSize: 0x34 }
  - { offset: 0x1178BA, size: 0x8, addend: 0x0, symName: __ZNKSt3__110__function6__funcIPFvN8cpptrace2v19log_levelEPKcENS_9allocatorIS8_EES7_E7__cloneEPNS0_6__baseIS7_EE, symObjAddr: 0x1784, symBinAddr: 0x86254, symSize: 0x14 }
  - { offset: 0x1178F3, size: 0x8, addend: 0x0, symName: __ZNKSt3__110__function6__funcIPFvN8cpptrace2v19log_levelEPKcENS_9allocatorIS8_EES7_E7__cloneEPNS0_6__baseIS7_EE, symObjAddr: 0x1784, symBinAddr: 0x86254, symSize: 0x14 }
  - { offset: 0x117925, size: 0x8, addend: 0x0, symName: __ZNKSt3__110__function6__funcIPFvN8cpptrace2v19log_levelEPKcENS_9allocatorIS8_EES7_E7__cloneEPNS0_6__baseIS7_EE, symObjAddr: 0x1784, symBinAddr: 0x86254, symSize: 0x14 }
  - { offset: 0x117957, size: 0x8, addend: 0x0, symName: __ZNKSt3__110__function6__funcIPFvN8cpptrace2v19log_levelEPKcENS_9allocatorIS8_EES7_E7__cloneEPNS0_6__baseIS7_EE, symObjAddr: 0x1784, symBinAddr: 0x86254, symSize: 0x14 }
  - { offset: 0x11796D, size: 0x8, addend: 0x0, symName: __ZNKSt3__110__function6__funcIPFvN8cpptrace2v19log_levelEPKcENS_9allocatorIS8_EES7_E7__cloneEPNS0_6__baseIS7_EE, symObjAddr: 0x1784, symBinAddr: 0x86254, symSize: 0x14 }
  - { offset: 0x117982, size: 0x8, addend: 0x0, symName: __ZNKSt3__110__function6__funcIPFvN8cpptrace2v19log_levelEPKcENS_9allocatorIS8_EES7_E7__cloneEPNS0_6__baseIS7_EE, symObjAddr: 0x1784, symBinAddr: 0x86254, symSize: 0x14 }
  - { offset: 0x117997, size: 0x8, addend: 0x0, symName: __ZNKSt3__110__function6__funcIPFvN8cpptrace2v19log_levelEPKcENS_9allocatorIS8_EES7_E7__cloneEPNS0_6__baseIS7_EE, symObjAddr: 0x1784, symBinAddr: 0x86254, symSize: 0x14 }
  - { offset: 0x1179AC, size: 0x8, addend: 0x0, symName: __ZNKSt3__110__function6__funcIPFvN8cpptrace2v19log_levelEPKcENS_9allocatorIS8_EES7_E7__cloneEPNS0_6__baseIS7_EE, symObjAddr: 0x1784, symBinAddr: 0x86254, symSize: 0x14 }
  - { offset: 0x1179C4, size: 0x8, addend: 0x0, symName: __ZNSt3__110__function6__funcIPFvN8cpptrace2v19log_levelEPKcENS_9allocatorIS8_EES7_E7destroyEv, symObjAddr: 0x1798, symBinAddr: 0x86268, symSize: 0x4 }
  - { offset: 0x117A17, size: 0x8, addend: 0x0, symName: __ZNSt3__110__function6__funcIPFvN8cpptrace2v19log_levelEPKcENS_9allocatorIS8_EES7_E18destroy_deallocateEv, symObjAddr: 0x179C, symBinAddr: 0x8626C, symSize: 0x4 }
  - { offset: 0x117A4D, size: 0x8, addend: 0x0, symName: __ZNSt3__110__function6__funcIPFvN8cpptrace2v19log_levelEPKcENS_9allocatorIS8_EES7_E18destroy_deallocateEv, symObjAddr: 0x179C, symBinAddr: 0x8626C, symSize: 0x4 }
  - { offset: 0x117A72, size: 0x8, addend: 0x0, symName: __ZNSt3__110__function6__funcIPFvN8cpptrace2v19log_levelEPKcENS_9allocatorIS8_EES7_E18destroy_deallocateEv, symObjAddr: 0x179C, symBinAddr: 0x8626C, symSize: 0x4 }
  - { offset: 0x117AA1, size: 0x8, addend: 0x0, symName: __ZNSt3__110__function6__funcIPFvN8cpptrace2v19log_levelEPKcENS_9allocatorIS8_EES7_E18destroy_deallocateEv, symObjAddr: 0x179C, symBinAddr: 0x8626C, symSize: 0x4 }
  - { offset: 0x117ACA, size: 0x8, addend: 0x0, symName: __ZNSt3__110__function6__funcIPFvN8cpptrace2v19log_levelEPKcENS_9allocatorIS8_EES7_E18destroy_deallocateEv, symObjAddr: 0x179C, symBinAddr: 0x8626C, symSize: 0x4 }
  - { offset: 0x117B62, size: 0x8, addend: 0x0, symName: __ZNSt3__110__function6__funcIPFvN8cpptrace2v19log_levelEPKcENS_9allocatorIS8_EES7_EclEOS4_OS6_, symObjAddr: 0x17A0, symBinAddr: 0x86270, symSize: 0x10 }
  - { offset: 0x117BAE, size: 0x8, addend: 0x0, symName: __ZNSt3__110__function6__funcIPFvN8cpptrace2v19log_levelEPKcENS_9allocatorIS8_EES7_EclEOS4_OS6_, symObjAddr: 0x17A0, symBinAddr: 0x86270, symSize: 0x10 }
  - { offset: 0x117BE0, size: 0x8, addend: 0x0, symName: __ZNSt3__110__function6__funcIPFvN8cpptrace2v19log_levelEPKcENS_9allocatorIS8_EES7_EclEOS4_OS6_, symObjAddr: 0x17A0, symBinAddr: 0x86270, symSize: 0x10 }
  - { offset: 0x117C11, size: 0x8, addend: 0x0, symName: __ZNSt3__110__function6__funcIPFvN8cpptrace2v19log_levelEPKcENS_9allocatorIS8_EES7_EclEOS4_OS6_, symObjAddr: 0x17A0, symBinAddr: 0x86270, symSize: 0x10 }
  - { offset: 0x117CA7, size: 0x8, addend: 0x0, symName: __ZNKSt3__110__function6__funcIPFvN8cpptrace2v19log_levelEPKcENS_9allocatorIS8_EES7_E6targetERKSt9type_info, symObjAddr: 0x17B0, symBinAddr: 0x86280, symSize: 0x54 }
  - { offset: 0x117D60, size: 0x8, addend: 0x0, symName: __ZNKSt3__110__function6__funcIPFvN8cpptrace2v19log_levelEPKcENS_9allocatorIS8_EES7_E11target_typeEv, symObjAddr: 0x1804, symBinAddr: 0x862D4, symSize: 0xC }
  - { offset: 0x119D04, size: 0x8, addend: 0x0, symName: __ZN8cpptrace2v16detail30should_absorb_trace_exceptionsEv, symObjAddr: 0x0, symBinAddr: 0x86454, symSize: 0x14 }
  - { offset: 0x119D2D, size: 0x8, addend: 0x0, symName: __ZN8cpptrace2v16detail23absorb_trace_exceptionsE, symObjAddr: 0x68, symBinAddr: 0xB1004, symSize: 0x0 }
  - { offset: 0x119D47, size: 0x8, addend: 0x0, symName: __ZN8cpptrace2v16detail21resolve_inlined_callsE, symObjAddr: 0x69, symBinAddr: 0xB1005, symSize: 0x0 }
  - { offset: 0x119D61, size: 0x8, addend: 0x0, symName: __ZN8cpptrace2v16detail18current_cache_modeE, symObjAddr: 0x6C, symBinAddr: 0xB1008, symSize: 0x0 }
  - { offset: 0x119D6F, size: 0x8, addend: 0x0, symName: __ZN8cpptrace2v16detail30should_absorb_trace_exceptionsEv, symObjAddr: 0x0, symBinAddr: 0x86454, symSize: 0x14 }
  - { offset: 0x119D91, size: 0x8, addend: 0x0, symName: __ZN8cpptrace2v16detail30should_absorb_trace_exceptionsEv, symObjAddr: 0x0, symBinAddr: 0x86454, symSize: 0x14 }
  - { offset: 0x119DB0, size: 0x8, addend: 0x0, symName: __ZN8cpptrace2v16detail30should_absorb_trace_exceptionsEv, symObjAddr: 0x0, symBinAddr: 0x86454, symSize: 0x14 }
  - { offset: 0x119DD6, size: 0x8, addend: 0x0, symName: __ZN8cpptrace2v16detail30should_absorb_trace_exceptionsEv, symObjAddr: 0x0, symBinAddr: 0x86454, symSize: 0x14 }
  - { offset: 0x119DFC, size: 0x8, addend: 0x0, symName: __ZN8cpptrace2v16detail28should_resolve_inlined_callsEv, symObjAddr: 0x14, symBinAddr: 0x86468, symSize: 0x14 }
  - { offset: 0x119E1E, size: 0x8, addend: 0x0, symName: __ZN8cpptrace2v16detail28should_resolve_inlined_callsEv, symObjAddr: 0x14, symBinAddr: 0x86468, symSize: 0x14 }
  - { offset: 0x119E3D, size: 0x8, addend: 0x0, symName: __ZN8cpptrace2v16detail28should_resolve_inlined_callsEv, symObjAddr: 0x14, symBinAddr: 0x86468, symSize: 0x14 }
  - { offset: 0x119E63, size: 0x8, addend: 0x0, symName: __ZN8cpptrace2v16detail28should_resolve_inlined_callsEv, symObjAddr: 0x14, symBinAddr: 0x86468, symSize: 0x14 }
  - { offset: 0x119E89, size: 0x8, addend: 0x0, symName: __ZN8cpptrace2v16detail14get_cache_modeEv, symObjAddr: 0x28, symBinAddr: 0x8647C, symSize: 0x10 }
  - { offset: 0x119EAB, size: 0x8, addend: 0x0, symName: __ZN8cpptrace2v16detail14get_cache_modeEv, symObjAddr: 0x28, symBinAddr: 0x8647C, symSize: 0x10 }
  - { offset: 0x119ECA, size: 0x8, addend: 0x0, symName: __ZN8cpptrace2v16detail14get_cache_modeEv, symObjAddr: 0x28, symBinAddr: 0x8647C, symSize: 0x10 }
  - { offset: 0x119EF0, size: 0x8, addend: 0x0, symName: __ZN8cpptrace2v16detail14get_cache_modeEv, symObjAddr: 0x28, symBinAddr: 0x8647C, symSize: 0x10 }
  - { offset: 0x119F17, size: 0x8, addend: 0x0, symName: __ZN8cpptrace2v123absorb_trace_exceptionsEb, symObjAddr: 0x38, symBinAddr: 0x8648C, symSize: 0x10 }
  - { offset: 0x119F48, size: 0x8, addend: 0x0, symName: __ZN8cpptrace2v123absorb_trace_exceptionsEb, symObjAddr: 0x38, symBinAddr: 0x8648C, symSize: 0x10 }
  - { offset: 0x119F74, size: 0x8, addend: 0x0, symName: __ZN8cpptrace2v123absorb_trace_exceptionsEb, symObjAddr: 0x38, symBinAddr: 0x8648C, symSize: 0x10 }
  - { offset: 0x119FA7, size: 0x8, addend: 0x0, symName: __ZN8cpptrace2v123absorb_trace_exceptionsEb, symObjAddr: 0x38, symBinAddr: 0x8648C, symSize: 0x10 }
  - { offset: 0x119FD5, size: 0x8, addend: 0x0, symName: __ZN8cpptrace2v130enable_inlined_call_resolutionEb, symObjAddr: 0x48, symBinAddr: 0x8649C, symSize: 0x10 }
  - { offset: 0x11A006, size: 0x8, addend: 0x0, symName: __ZN8cpptrace2v130enable_inlined_call_resolutionEb, symObjAddr: 0x48, symBinAddr: 0x8649C, symSize: 0x10 }
  - { offset: 0x11A032, size: 0x8, addend: 0x0, symName: __ZN8cpptrace2v130enable_inlined_call_resolutionEb, symObjAddr: 0x48, symBinAddr: 0x8649C, symSize: 0x10 }
  - { offset: 0x11A065, size: 0x8, addend: 0x0, symName: __ZN8cpptrace2v130enable_inlined_call_resolutionEb, symObjAddr: 0x48, symBinAddr: 0x8649C, symSize: 0x10 }
  - { offset: 0x11A098, size: 0x8, addend: 0x0, symName: __ZN8cpptrace2v112experimental14set_cache_modeENS0_10cache_modeE, symObjAddr: 0x58, symBinAddr: 0x864AC, symSize: 0x10 }
  - { offset: 0x11A0C4, size: 0x8, addend: 0x0, symName: __ZN8cpptrace2v112experimental14set_cache_modeENS0_10cache_modeE, symObjAddr: 0x58, symBinAddr: 0x864AC, symSize: 0x10 }
  - { offset: 0x11A0EB, size: 0x8, addend: 0x0, symName: __ZN8cpptrace2v112experimental14set_cache_modeENS0_10cache_modeE, symObjAddr: 0x58, symBinAddr: 0x864AC, symSize: 0x10 }
  - { offset: 0x11A119, size: 0x8, addend: 0x0, symName: __ZN8cpptrace2v112experimental14set_cache_modeENS0_10cache_modeE, symObjAddr: 0x58, symBinAddr: 0x864AC, symSize: 0x10 }
  - { offset: 0x11D776, size: 0x8, addend: 0x0, symName: __ZN8cpptrace2v112stdin_filenoE, symObjAddr: 0x16E4, symBinAddr: 0xA8DDC, symSize: 0x0 }
  - { offset: 0x11D790, size: 0x8, addend: 0x0, symName: __ZN8cpptrace2v113stdout_filenoE, symObjAddr: 0x16E8, symBinAddr: 0xA8DE0, symSize: 0x0 }
  - { offset: 0x11D7AA, size: 0x8, addend: 0x0, symName: __ZN8cpptrace2v113stderr_filenoE, symObjAddr: 0x16EC, symBinAddr: 0xA8DE4, symSize: 0x0 }
  - { offset: 0x11ED9D, size: 0x8, addend: 0x0, symName: __ZN8cpptrace2v18microfmt5printIA51_cJNSt3__112basic_stringIcNS4_11char_traitsIcEENS4_9allocatorIcEEEEEEEvP7__sFILERKT_DpOT0_, symObjAddr: 0x5A8, symBinAddr: 0x869C8, symSize: 0xEC }
  - { offset: 0x11F11B, size: 0x8, addend: 0x0, symName: __ZN8cpptrace2v18microfmt5printIA55_cJNSt3__112basic_stringIcNS4_11char_traitsIcEENS4_9allocatorIcEEEEPKcEEEvP7__sFILERKT_DpOT0_, symObjAddr: 0x7B4, symBinAddr: 0x86BD4, symSize: 0xFC }
  - { offset: 0x11F606, size: 0x8, addend: 0x0, symName: __ZN8cpptrace2v16detail19exception_type_nameEv, symObjAddr: 0x694, symBinAddr: 0x86AB4, symSize: 0x120 }
  - { offset: 0x11FF38, size: 0x8, addend: 0x0, symName: __ZN8cpptrace2v18demangleERKNSt3__112basic_stringIcNS1_11char_traitsIcEENS1_9allocatorIcEEEE, symObjAddr: 0x0, symBinAddr: 0x864BC, symSize: 0x8 }
  - { offset: 0x11FF77, size: 0x8, addend: 0x0, symName: __ZN8cpptrace2v111get_snippetERKNSt3__112basic_stringIcNS1_11char_traitsIcEENS1_9allocatorIcEEEEmmb, symObjAddr: 0x8, symBinAddr: 0x864C4, symSize: 0x10 }
  - { offset: 0x120002, size: 0x8, addend: 0x0, symName: __ZN8cpptrace2v111get_snippetERKNSt3__112basic_stringIcNS1_11char_traitsIcEENS1_9allocatorIcEEEEmNS0_8nullableIjLi0EEEmb, symObjAddr: 0x18, symBinAddr: 0x864D4, symSize: 0x8 }
  - { offset: 0x12009F, size: 0x8, addend: 0x0, symName: __ZN8cpptrace2v16isattyEi, symObjAddr: 0x20, symBinAddr: 0x864DC, symSize: 0x4 }
  - { offset: 0x1200BF, size: 0x8, addend: 0x0, symName: __ZN8cpptrace2v16isattyEi, symObjAddr: 0x20, symBinAddr: 0x864DC, symSize: 0x4 }
  - { offset: 0x1200D2, size: 0x8, addend: 0x0, symName: __ZN8cpptrace2v121print_terminate_traceEv, symObjAddr: 0x24, symBinAddr: 0x864E0, symSize: 0x104 }
  - { offset: 0x1205B6, size: 0x8, addend: 0x0, symName: __ZN8cpptrace2v117terminate_handlerEv, symObjAddr: 0x1C4, symBinAddr: 0x865E4, symSize: 0x3E4 }
  - { offset: 0x121CD0, size: 0x8, addend: 0x0, symName: __ZN8cpptrace2v126register_terminate_handlerEv, symObjAddr: 0x8D4, symBinAddr: 0x86CF4, symSize: 0xC }
  - { offset: 0x124E9C, size: 0x8, addend: 0x0, symName: __ZNSt3__15flushB8ne180100IcNS_11char_traitsIcEEEERNS_13basic_ostreamIT_T0_EES7_, symObjAddr: 0x8B0, symBinAddr: 0x86CD0, symSize: 0x24 }
  - { offset: 0x129ABA, size: 0x8, addend: 0x0, symName: __ZN8cpptrace2v16detailL25punctuators_and_operatorsE, symObjAddr: 0x630C8, symBinAddr: 0xB1438, symSize: 0x0 }
  - { offset: 0x129AD3, size: 0x8, addend: 0x0, symName: __ZN8cpptrace2v16detailL29anonymous_namespace_spellingsE, symObjAddr: 0x630E0, symBinAddr: 0xB1450, symSize: 0x0 }
  - { offset: 0x12A060, size: 0x8, addend: 0x0, symName: __ZN8cpptrace2v16detail19is_identifier_startEc, symObjAddr: 0x0, symBinAddr: 0x86D00, symSize: 0x58 }
  - { offset: 0x12A0FA, size: 0x8, addend: 0x0, symName: __ZN8cpptrace2v16detail22is_identifier_continueEc, symObjAddr: 0x58, symBinAddr: 0x86D58, symSize: 0x64 }
  - { offset: 0x12A8AF, size: 0x8, addend: 0x0, symName: __ZN8cpptrace2v16detail12is_hex_digitEc, symObjAddr: 0xBC, symBinAddr: 0x86DBC, symSize: 0x64 }
  - { offset: 0x12A8E0, size: 0x8, addend: 0x0, symName: __ZN8cpptrace2v16detail12is_hex_digitEc, symObjAddr: 0xBC, symBinAddr: 0x86DBC, symSize: 0x64 }
  - { offset: 0x12A90A, size: 0x8, addend: 0x0, symName: __ZN8cpptrace2v16detail12is_hex_digitEc, symObjAddr: 0xBC, symBinAddr: 0x86DBC, symSize: 0x64 }
  - { offset: 0x12AA2C, size: 0x8, addend: 0x0, symName: __ZN8cpptrace2v16detail14is_octal_digitEc, symObjAddr: 0x120, symBinAddr: 0x86E20, symSize: 0x20 }
  - { offset: 0x12AA6F, size: 0x8, addend: 0x0, symName: __ZN8cpptrace2v16detail21is_simple_escape_charEc, symObjAddr: 0x140, symBinAddr: 0x86E40, symSize: 0x40 }
  - { offset: 0x12AB70, size: 0x8, addend: 0x0, symName: __ZN8cpptrace2v16detail22is_opening_punctuationENS1_11string_viewE, symObjAddr: 0x1B0, symBinAddr: 0x86EB0, symSize: 0x90 }
  - { offset: 0x12AC18, size: 0x8, addend: 0x0, symName: __ZN8cpptrace2v16detail22is_closing_punctuationENS1_11string_viewE, symObjAddr: 0x240, symBinAddr: 0x86F40, symSize: 0x90 }
  - { offset: 0x12ACC6, size: 0x8, addend: 0x0, symName: __ZN8cpptrace2v16detail29get_corresponding_punctuationENS1_11string_viewE, symObjAddr: 0x2D0, symBinAddr: 0x86FD0, symSize: 0x108 }
  - { offset: 0x12B022, size: 0x8, addend: 0x0, symName: __ZN8cpptrace2v16detail21is_ignored_identifierENS1_11string_viewE, symObjAddr: 0x3D8, symBinAddr: 0x870D8, symSize: 0x58 }
  - { offset: 0x12B210, size: 0x8, addend: 0x0, symName: __ZN8cpptrace2v16detail31is_microsoft_calling_conventionENS1_11string_viewE, symObjAddr: 0x430, symBinAddr: 0x87130, symSize: 0x54 }
  - { offset: 0x12B242, size: 0x8, addend: 0x0, symName: __ZN8cpptrace2v16detail6is_anyINS1_11string_viewEA8_cJA10_cS5_A11_cS6_A13_cEEEbRKT_RKT0_DpRKT1_, symObjAddr: 0x484, symBinAddr: 0x87184, symSize: 0xF0 }
  - { offset: 0x12B745, size: 0x8, addend: 0x0, symName: __ZN8cpptrace2v16detail14is_pointer_refERKNS1_5tokenE, symObjAddr: 0x574, symBinAddr: 0x87274, symSize: 0x34 }
  - { offset: 0x12B772, size: 0x8, addend: 0x0, symName: __ZN8cpptrace2v16detail6is_anyINS1_11string_viewEA2_cJS4_A3_cEEEbRKT_RKT0_DpRKT1_, symObjAddr: 0x5A8, symBinAddr: 0x872A8, symSize: 0xB4 }
  - { offset: 0x12C29E, size: 0x8, addend: 0x0, symName: __ZN8cpptrace2v16detail12prune_symbolENS1_11string_viewE, symObjAddr: 0x65C, symBinAddr: 0x8735C, symSize: 0x2F0 }
  - { offset: 0x12CF08, size: 0x8, addend: 0x0, symName: __ZN8cpptrace2v16detail3log5debugIJNS1_11string_viewEEEEvPKcDpOT_, symObjAddr: 0x281C, symBinAddr: 0x89484, symSize: 0xD4 }
  - { offset: 0x12D459, size: 0x8, addend: 0x0, symName: __ZN8cpptrace2v16detail6is_anyINS1_11string_viewEA5_cJA8_cEEEbRKT_RKT0_DpRKT1_, symObjAddr: 0x6154, symBinAddr: 0x8C1F4, symSize: 0x8C }
  - { offset: 0x12E5E2, size: 0x8, addend: 0x0, symName: __ZN8cpptrace2v112prune_symbolERKNSt3__112basic_stringIcNS1_11char_traitsIcEENS1_9allocatorIcEEEE, symObjAddr: 0xA74, symBinAddr: 0x87774, symSize: 0xBC }
  - { offset: 0x131C8F, size: 0x8, addend: 0x0, symName: '__ZNSt3__111__introsortINS_17_ClassicAlgPolicyERZNK8cpptrace2v16detail3$_0clEvEUlNS4_11string_viewES6_E_PS6_Lb0EEEvT1_SA_T0_NS_15iterator_traitsISA_E15difference_typeEb', symObjAddr: 0xBB4, symBinAddr: 0x87830, symSize: 0xB10 }
  - { offset: 0x133479, size: 0x8, addend: 0x0, symName: '__ZNSt3__127__insertion_sort_incompleteB8ne180100INS_17_ClassicAlgPolicyERZNK8cpptrace2v16detail3$_0clEvEUlNS4_11string_viewES6_E_PS6_EEbT1_SA_T0_', symObjAddr: 0x16C4, symBinAddr: 0x88340, symSize: 0x324 }
  - { offset: 0x1349A7, size: 0x8, addend: 0x0, symName: '__ZNSt3__17__sort4B8ne180100INS_17_ClassicAlgPolicyERZNK8cpptrace2v16detail3$_0clEvEUlNS4_11string_viewES6_E_PS6_EEvT1_SA_SA_SA_T0_', symObjAddr: 0x19E8, symBinAddr: 0x88664, symSize: 0x104 }
  - { offset: 0x136A64, size: 0x8, addend: 0x0, symName: __ZNSt3__16vectorIN8cpptrace2v16detail11string_viewENS_9allocatorIS4_EEED1B8ne180100Ev, symObjAddr: 0x180, symBinAddr: 0x86E80, symSize: 0x30 }
  - { offset: 0x1372D9, size: 0x8, addend: 0x0, symName: __ZN8cpptrace2v16detail13symbol_parser5parseEv, symObjAddr: 0x94C, symBinAddr: 0x8764C, symSize: 0x128 }
  - { offset: 0x13762E, size: 0x8, addend: 0x0, symName: __ZN8cpptrace2v16detail16symbol_tokenizer4peekEb, symObjAddr: 0x1B00, symBinAddr: 0x88768, symSize: 0xF8 }
  - { offset: 0x137864, size: 0x8, addend: 0x0, symName: __ZN8cpptrace2v16detail16symbol_tokenizer21maybe_load_next_tokenEv, symObjAddr: 0x2010, symBinAddr: 0x88C78, symSize: 0x288 }
  - { offset: 0x137FC1, size: 0x8, addend: 0x0, symName: __ZN8cpptrace2v16detail13symbol_parser12parse_symbolEv, symObjAddr: 0x1BF8, symBinAddr: 0x88860, symSize: 0x418 }
  - { offset: 0x138E7A, size: 0x8, addend: 0x0, symName: __ZN8cpptrace2v16detail16symbol_tokenizer4peekEb, symObjAddr: 0x1B00, symBinAddr: 0x88768, symSize: 0xF8 }
  - { offset: 0x139253, size: 0x8, addend: 0x0, symName: __ZN8cpptrace2v16detail13symbol_parser17parse_symbol_termEv, symObjAddr: 0x34B8, symBinAddr: 0x89558, symSize: 0x218 }
  - { offset: 0x1396E2, size: 0x8, addend: 0x0, symName: __ZZNK8cpptrace2v16detail13symbol_parser29lookahead_is_function_pointerEvENKUlNS1_16symbol_tokenizerEE_clES3_, symObjAddr: 0x697C, symBinAddr: 0x8CA1C, symSize: 0x22C }
  - { offset: 0x139C86, size: 0x8, addend: 0x0, symName: __ZN8cpptrace2v16detail13symbol_parser22parse_function_pointerEv, symObjAddr: 0x36D0, symBinAddr: 0x89770, symSize: 0x468 }
  - { offset: 0x13A970, size: 0x8, addend: 0x0, symName: __ZN8cpptrace2v16detail13symbol_parser18accept_pointer_refEb, symObjAddr: 0x3B38, symBinAddr: 0x89BD8, symSize: 0x2C8 }
  - { offset: 0x13AECC, size: 0x8, addend: 0x0, symName: __ZN8cpptrace2v16detail13symbol_parser42consume_punctuation_and_trailing_modifiersEv, symObjAddr: 0x3E00, symBinAddr: 0x89EA0, symSize: 0x1A8 }
  - { offset: 0x13B2AE, size: 0x8, addend: 0x0, symName: __ZN8cpptrace2v16detail16symbol_tokenizer6acceptENS1_5tokenEb, symObjAddr: 0x3FA8, symBinAddr: 0x8A048, symSize: 0x1DC }
  - { offset: 0x13B8CC, size: 0x8, addend: 0x0, symName: __ZN8cpptrace2v16detail13symbol_parser13append_outputENS1_5tokenE, symObjAddr: 0x4184, symBinAddr: 0x8A224, symSize: 0x120 }
  - { offset: 0x13BF63, size: 0x8, addend: 0x0, symName: __ZNK8cpptrace2v16detail16symbol_tokenizer12peek_literalEv, symObjAddr: 0x2298, symBinAddr: 0x88F00, symSize: 0x294 }
  - { offset: 0x13C543, size: 0x8, addend: 0x0, symName: __ZNK8cpptrace2v16detail16symbol_tokenizer16peek_punctuationEm, symObjAddr: 0x252C, symBinAddr: 0x89194, symSize: 0xA8 }
  - { offset: 0x13C7D1, size: 0x8, addend: 0x0, symName: __ZNK8cpptrace2v16detail16symbol_tokenizer15peek_identifierEm, symObjAddr: 0x25D4, symBinAddr: 0x8923C, symSize: 0x130 }
  - { offset: 0x13CBE7, size: 0x8, addend: 0x0, symName: __ZNK8cpptrace2v16detail16symbol_tokenizer11peek_numberEv, symObjAddr: 0x2704, symBinAddr: 0x8936C, symSize: 0x118 }
  - { offset: 0x13DC3D, size: 0x8, addend: 0x0, symName: __ZN8cpptrace2v16detail16symbol_tokenizer6acceptENS1_10token_typeEb, symObjAddr: 0x57AC, symBinAddr: 0x8B84C, symSize: 0x1BC }
  - { offset: 0x13E23A, size: 0x8, addend: 0x0, symName: __ZN8cpptrace2v16detail13symbol_parser15accept_operatorEb, symObjAddr: 0x42A4, symBinAddr: 0x8A344, symSize: 0x700 }
  - { offset: 0x13F0DB, size: 0x8, addend: 0x0, symName: __ZN8cpptrace2v16detail13symbol_parser23accept_identifier_tokenEv, symObjAddr: 0x49A4, symBinAddr: 0x8AA44, symSize: 0x1B4 }
  - { offset: 0x13F49B, size: 0x8, addend: 0x0, symName: __ZN8cpptrace2v16detail13symbol_parser24accept_lambda_or_unnamedEv, symObjAddr: 0x4B58, symBinAddr: 0x8ABF8, symSize: 0xC54 }
  - { offset: 0x141146, size: 0x8, addend: 0x0, symName: __ZN8cpptrace2v16detail13symbol_parser27accept_balanced_punctuationEv, symObjAddr: 0x64D8, symBinAddr: 0x8C578, symSize: 0x1F8 }
  - { offset: 0x141780, size: 0x8, addend: 0x0, symName: __ZN8cpptrace2v16detail13symbol_parser25accept_ignored_identifierEv, symObjAddr: 0x6BA8, symBinAddr: 0x8CC48, symSize: 0x170 }
  - { offset: 0x141CF9, size: 0x8, addend: 0x0, symName: __ZN8cpptrace2v16detail13symbol_parser17accept_new_deleteEv, symObjAddr: 0x5AA8, symBinAddr: 0x8BB48, symSize: 0x318 }
  - { offset: 0x1425A6, size: 0x8, addend: 0x0, symName: __ZN8cpptrace2v16detail13symbol_parser23accept_special_decltypeEv, symObjAddr: 0x5DC0, symBinAddr: 0x8BE60, symSize: 0x394 }
  - { offset: 0x142DF0, size: 0x8, addend: 0x0, symName: __ZN8cpptrace2v16detail13symbol_parser19consume_punctuationEv, symObjAddr: 0x61E0, symBinAddr: 0x8C280, symSize: 0x2F8 }
  - { offset: 0x1433C8, size: 0x8, addend: 0x0, symName: __ZN8cpptrace2v16detail16symbol_tokenizer7advanceEb, symObjAddr: 0x5968, symBinAddr: 0x8BA08, symSize: 0x140 }
  - { offset: 0x14386B, size: 0x8, addend: 0x0, symName: __ZN8cpptrace2v16detail13symbol_parser16consume_balancedENS1_11string_viewE, symObjAddr: 0x66D0, symBinAddr: 0x8C770, symSize: 0x2AC }
  - { offset: 0x145B73, size: 0x8, addend: 0x0, symName: __ZN8cpptrace2v16detail8demangleERKNSt3__112basic_stringIcNS2_11char_traitsIcEENS2_9allocatorIcEEEEb, symObjAddr: 0x0, symBinAddr: 0x8D138, symSize: 0x5E8 }
  - { offset: 0x149023, size: 0x8, addend: 0x0, symName: __ZN8cpptrace2v16detail8demangleERKNSt3__112basic_stringIcNS2_11char_traitsIcEENS2_9allocatorIcEEEEb, symObjAddr: 0x0, symBinAddr: 0x8D138, symSize: 0x5E8 }
  - { offset: 0x14E65C, size: 0x8, addend: 0x0, symName: __ZN8cpptrace2v16detail22get_jit_object_managerEv, symObjAddr: 0x0, symBinAddr: 0x8D720, symSize: 0x64 }
  - { offset: 0x14E679, size: 0x8, addend: 0x0, symName: __ZN8cpptrace2v16detail22get_jit_object_managerEv, symObjAddr: 0x0, symBinAddr: 0x8D720, symSize: 0x64 }
  - { offset: 0x14E699, size: 0x8, addend: 0x0, symName: __ZZN8cpptrace2v16detail22get_jit_object_managerEvE7manager, symObjAddr: 0x57768, symBinAddr: 0xB1470, symSize: 0x0 }
  - { offset: 0x14FA4C, size: 0x8, addend: 0x0, symName: __ZN8cpptrace2v16detail19register_jit_objectEPKcm, symObjAddr: 0xE8, symBinAddr: 0x8D808, symSize: 0x80 }
  - { offset: 0x14FAFE, size: 0x8, addend: 0x0, symName: __ZN8cpptrace2v16detail21unregister_jit_objectEPKc, symObjAddr: 0x594, symBinAddr: 0x8DCB4, symSize: 0x7C }
  - { offset: 0x14FB53, size: 0x8, addend: 0x0, symName: __ZN8cpptrace2v16detail21clear_all_jit_objectsEv, symObjAddr: 0x77C, symBinAddr: 0x8DE9C, symSize: 0xAC }
  - { offset: 0x14FE3B, size: 0x8, addend: 0x0, symName: __ZN8cpptrace2v16detail17lookup_jit_objectEm, symObjAddr: 0x828, symBinAddr: 0x8DF48, symSize: 0x100 }
  - { offset: 0x15B68C, size: 0x8, addend: 0x0, symName: __ZN8cpptrace2v16detail18jit_object_managerD1Ev, symObjAddr: 0x64, symBinAddr: 0x8D784, symSize: 0x84 }
  - { offset: 0x15BE9A, size: 0x8, addend: 0x0, symName: __ZN8cpptrace2v16detail18jit_object_manager14add_jit_objectENS1_4spanIKcEE, symObjAddr: 0x168, symBinAddr: 0x8D888, symSize: 0x42C }
  - { offset: 0x15DFFC, size: 0x8, addend: 0x0, symName: __ZNSt3__16vectorIN8cpptrace2v16detail18jit_object_manager12object_entryENS_9allocatorIS5_EEE21__push_back_slow_pathIS5_EEPS5_OT_, symObjAddr: 0xD2C, symBinAddr: 0x8E2C8, symSize: 0x1CC }
  - { offset: 0x15E735, size: 0x8, addend: 0x0, symName: __ZNSt3__16vectorIN8cpptrace2v16detail18jit_object_manager11range_entryENS_9allocatorIS5_EEE6insertENS_11__wrap_iterIPKS5_EERSA_, symObjAddr: 0xA28, symBinAddr: 0x8E07C, symSize: 0x24C }
  - { offset: 0x15F35D, size: 0x8, addend: 0x0, symName: __ZN8cpptrace2v16detail18jit_object_manager12object_entryD1Ev, symObjAddr: 0x928, symBinAddr: 0x8E048, symSize: 0x34 }
  - { offset: 0x15F734, size: 0x8, addend: 0x0, symName: __ZN8cpptrace2v16detail18jit_object_manager17remove_jit_objectEPKc, symObjAddr: 0x610, symBinAddr: 0x8DD30, symSize: 0x16C }
  - { offset: 0x15FF5B, size: 0x8, addend: 0x0, symName: __ZNSt3__16vectorIN8cpptrace2v16detail18jit_object_manager12object_entryENS_9allocatorIS5_EEE5eraseENS_11__wrap_iterIPKS5_EESC_, symObjAddr: 0x1054, symBinAddr: 0x8E494, symSize: 0xCC }
  - { offset: 0x163075, size: 0x8, addend: 0x0, symName: __ZN8cpptrace2v16detail11get_managerERKNSt3__112basic_stringIcNS2_11char_traitsIcEENS2_9allocatorIcEEEE, symObjAddr: 0x0, symBinAddr: 0x8E560, symSize: 0x224 }
  - { offset: 0x16309F, size: 0x8, addend: 0x0, symName: __ZZN8cpptrace2v16detail11get_managerERKNSt3__112basic_stringIcNS2_11char_traitsIcEENS2_9allocatorIcEEEEE21snippet_manager_mutex, symObjAddr: 0x4698, symBinAddr: 0xB1010, symSize: 0x0 }
  - { offset: 0x1630B5, size: 0x8, addend: 0x0, symName: __ZZN8cpptrace2v16detail11get_managerERKNSt3__112basic_stringIcNS2_11char_traitsIcEENS2_9allocatorIcEEEEE16snippet_managers, symObjAddr: 0xB18C0, symBinAddr: 0xB14B0, symSize: 0x0 }
  - { offset: 0x163F4A, size: 0x8, addend: 0x0, symName: __ZN8cpptrace2v16detail9get_linesERKNSt3__112basic_stringIcNS2_11char_traitsIcEENS2_9allocatorIcEEEEmm, symObjAddr: 0x2C4, symBinAddr: 0x8E824, symSize: 0x1E8 }
  - { offset: 0x1646FA, size: 0x8, addend: 0x0, symName: __ZN8cpptrace2v16detail17write_line_numberEmmb, symObjAddr: 0x624, symBinAddr: 0x8EB14, symSize: 0x42C }
  - { offset: 0x165D69, size: 0x8, addend: 0x0, symName: __ZN8cpptrace2v16detail12write_carrotEjb, symObjAddr: 0xA50, symBinAddr: 0x8EF40, symSize: 0x358 }
  - { offset: 0x166CC7, size: 0x8, addend: 0x0, symName: __ZN8cpptrace2v16detail10write_lineEmNS0_8nullableIjLi0EEEmbRKNS1_15snippet_contextE, symObjAddr: 0xDA8, symBinAddr: 0x8F298, symSize: 0x304 }
  - { offset: 0x167D7E, size: 0x8, addend: 0x0, symName: __ZN8cpptrace2v16detail11get_snippetERKNSt3__112basic_stringIcNS2_11char_traitsIcEENS2_9allocatorIcEEEEmNS0_8nullableIjLi0EEEmb, symObjAddr: 0x10AC, symBinAddr: 0x8F59C, symSize: 0x214 }
  - { offset: 0x1807CF, size: 0x8, addend: 0x0, symName: __ZNSt3__112__hash_tableINS_17__hash_value_typeINS_12basic_stringIcNS_11char_traitsIcEENS_9allocatorIcEEEEKN8cpptrace2v16detail15snippet_managerEEENS_22__unordered_map_hasherIS7_SD_NS_4hashIS7_EENS_8equal_toIS7_EELb1EEENS_21__unordered_map_equalIS7_SD_SI_SG_Lb1EEENS5_ISD_EEE4findIS7_EENS_15__hash_iteratorIPNS_11__hash_nodeISD_PvEEEERKT_, symObjAddr: 0x2B7C, symBinAddr: 0x90E48, symSize: 0x180 }
  - { offset: 0x180ADA, size: 0x8, addend: 0x0, symName: __ZN8cpptrace2v16detail15snippet_managerC2ERKNSt3__112basic_stringIcNS3_11char_traitsIcEENS3_9allocatorIcEEEE, symObjAddr: 0x133C, symBinAddr: 0x8F82C, symSize: 0x2E8 }
  - { offset: 0x181628, size: 0x8, addend: 0x0, symName: __ZNSt3__16vectorINS_12basic_stringIcNS_11char_traitsIcEENS_9allocatorIcEEEENS4_IS6_EEE21__push_back_slow_pathIS6_EEPS6_OT_, symObjAddr: 0x28E4, symBinAddr: 0x90C4C, symSize: 0x168 }
  - { offset: 0x181639, size: 0x8, addend: 0x0, symName: __ZNSt3__112__hash_tableINS_17__hash_value_typeINS_12basic_stringIcNS_11char_traitsIcEENS_9allocatorIcEEEEKN8cpptrace2v16detail15snippet_managerEEENS_22__unordered_map_hasherIS7_SD_NS_4hashIS7_EENS_8equal_toIS7_EELb1EEENS_21__unordered_map_equalIS7_SD_SI_SG_Lb1EEENS5_ISD_EEE25__emplace_unique_key_argsIS7_JNS_4pairIKS7_SC_EEEEENSP_INS_15__hash_iteratorIPNS_11__hash_nodeISD_PvEEEEbEERKT_DpOT0_, symObjAddr: 0x3134, symBinAddr: 0x90FC8, symSize: 0x394 }
  - { offset: 0x181FF3, size: 0x8, addend: 0x0, symName: __ZNSt3__14pairIKNS_12basic_stringIcNS_11char_traitsIcEENS_9allocatorIcEEEEKN8cpptrace2v16detail15snippet_managerEED1Ev, symObjAddr: 0x228, symBinAddr: 0x8E788, symSize: 0x5C }
  - { offset: 0x1823ED, size: 0x8, addend: 0x0, symName: __ZN8cpptrace2v16detail15snippet_managerD1Ev, symObjAddr: 0x284, symBinAddr: 0x8E7E4, symSize: 0x40 }
  - { offset: 0x1826D7, size: 0x8, addend: 0x0, symName: __ZNSt3__113unordered_mapINS_12basic_stringIcNS_11char_traitsIcEENS_9allocatorIcEEEEKN8cpptrace2v16detail15snippet_managerENS_4hashIS6_EENS_8equal_toIS6_EENS4_INS_4pairIKS6_SB_EEEEED1B8ne180100Ev, symObjAddr: 0x224, symBinAddr: 0x8E784, symSize: 0x4 }
  - { offset: 0x182703, size: 0x8, addend: 0x0, symName: __ZNSt3__113unordered_mapINS_12basic_stringIcNS_11char_traitsIcEENS_9allocatorIcEEEEKN8cpptrace2v16detail15snippet_managerENS_4hashIS6_EENS_8equal_toIS6_EENS4_INS_4pairIKS6_SB_EEEEED1B8ne180100Ev, symObjAddr: 0x224, symBinAddr: 0x8E784, symSize: 0x4 }
  - { offset: 0x182721, size: 0x8, addend: 0x0, symName: __ZNSt3__113unordered_mapINS_12basic_stringIcNS_11char_traitsIcEENS_9allocatorIcEEEEKN8cpptrace2v16detail15snippet_managerENS_4hashIS6_EENS_8equal_toIS6_EENS4_INS_4pairIKS6_SB_EEEEED1B8ne180100Ev, symObjAddr: 0x224, symBinAddr: 0x8E784, symSize: 0x4 }
  - { offset: 0x182741, size: 0x8, addend: 0x0, symName: __ZNSt3__113unordered_mapINS_12basic_stringIcNS_11char_traitsIcEENS_9allocatorIcEEEEKN8cpptrace2v16detail15snippet_managerENS_4hashIS6_EENS_8equal_toIS6_EENS4_INS_4pairIKS6_SB_EEEEED1B8ne180100Ev, symObjAddr: 0x224, symBinAddr: 0x8E784, symSize: 0x4 }
  - { offset: 0x182754, size: 0x8, addend: 0x0, symName: __ZNSt3__112__hash_tableINS_17__hash_value_typeINS_12basic_stringIcNS_11char_traitsIcEENS_9allocatorIcEEEEKN8cpptrace2v16detail15snippet_managerEEENS_22__unordered_map_hasherIS7_SD_NS_4hashIS7_EENS_8equal_toIS7_EELb1EEENS_21__unordered_map_equalIS7_SD_SI_SG_Lb1EEENS5_ISD_EEED2Ev, symObjAddr: 0x2AE8, symBinAddr: 0x90DB4, symSize: 0x94 }
  - { offset: 0x18317E, size: 0x8, addend: 0x0, symName: __ZNK8cpptrace2v16detail15snippet_manager8get_lineEm, symObjAddr: 0x4AC, symBinAddr: 0x8EA0C, symSize: 0x108 }
  - { offset: 0x1836F9, size: 0x8, addend: 0x0, symName: __ZNSt3__16vectorINS_12basic_stringIcNS_11char_traitsIcEENS_9allocatorIcEEEENS4_IS6_EEE21__push_back_slow_pathIS6_EEPS6_OT_, symObjAddr: 0x28E4, symBinAddr: 0x90C4C, symSize: 0x168 }
  - { offset: 0x18480B, size: 0x8, addend: 0x0, symName: __ZN8cpptrace2v16detail8optionalINS1_15snippet_contextELi0EED1Ev, symObjAddr: 0x12C0, symBinAddr: 0x8F7B0, symSize: 0x7C }
  - { offset: 0x184E77, size: 0x8, addend: 0x0, symName: __ZNSt3__113basic_filebufIcNS_11char_traitsIcEEEC2Ev, symObjAddr: 0x1ADC, symBinAddr: 0x8FFBC, symSize: 0x12C }
  - { offset: 0x184FA6, size: 0x8, addend: 0x0, symName: __ZN8cpptrace2v16detail15snippet_manager16build_line_tableEv, symObjAddr: 0x1624, symBinAddr: 0x8FB14, symSize: 0x320 }
  - { offset: 0x186122, size: 0x8, addend: 0x0, symName: __ZNSt3__114basic_ifstreamIcNS_11char_traitsIcEEED1Ev, symObjAddr: 0x1944, symBinAddr: 0x8FE34, symSize: 0x60 }
  - { offset: 0x18612D, size: 0x8, addend: 0x0, symName: __ZNSt3__113basic_filebufIcNS_11char_traitsIcEEED2Ev, symObjAddr: 0x26B0, symBinAddr: 0x90B90, symSize: 0xBC }
  - { offset: 0x186241, size: 0x8, addend: 0x0, symName: __ZNSt3__114basic_ifstreamIcNS_11char_traitsIcEEED1Ev, symObjAddr: 0x1944, symBinAddr: 0x8FE34, symSize: 0x60 }
  - { offset: 0x18668F, size: 0x8, addend: 0x0, symName: __ZNSt3__114basic_ifstreamIcNS_11char_traitsIcEEED0Ev, symObjAddr: 0x19B4, symBinAddr: 0x8FE94, symSize: 0x60 }
  - { offset: 0x186724, size: 0x8, addend: 0x0, symName: __ZTv0_n24_NSt3__114basic_ifstreamIcNS_11char_traitsIcEEED1Ev, symObjAddr: 0x1A14, symBinAddr: 0x8FEF4, symSize: 0x60 }
  - { offset: 0x1867D0, size: 0x8, addend: 0x0, symName: __ZTv0_n24_NSt3__114basic_ifstreamIcNS_11char_traitsIcEEED0Ev, symObjAddr: 0x1A74, symBinAddr: 0x8FF54, symSize: 0x68 }
  - { offset: 0x1868B5, size: 0x8, addend: 0x0, symName: __ZNSt3__113basic_filebufIcNS_11char_traitsIcEEED1Ev, symObjAddr: 0x1C08, symBinAddr: 0x900E8, symSize: 0x4 }
  - { offset: 0x1868D9, size: 0x8, addend: 0x0, symName: __ZNSt3__113basic_filebufIcNS_11char_traitsIcEEED1Ev, symObjAddr: 0x1C08, symBinAddr: 0x900E8, symSize: 0x4 }
  - { offset: 0x1868EC, size: 0x8, addend: 0x0, symName: __ZNSt3__113basic_filebufIcNS_11char_traitsIcEEED0Ev, symObjAddr: 0x1C0C, symBinAddr: 0x900EC, symSize: 0x14 }
  - { offset: 0x186982, size: 0x8, addend: 0x0, symName: __ZNSt3__113basic_filebufIcNS_11char_traitsIcEEE5imbueERKNS_6localeE, symObjAddr: 0x1C20, symBinAddr: 0x90100, symSize: 0xEC }
  - { offset: 0x186A5F, size: 0x8, addend: 0x0, symName: __ZNSt3__113basic_filebufIcNS_11char_traitsIcEEE6setbufEPcl, symObjAddr: 0x1D0C, symBinAddr: 0x901EC, symSize: 0x100 }
  - { offset: 0x186B43, size: 0x8, addend: 0x0, symName: __ZNSt3__113basic_filebufIcNS_11char_traitsIcEEE7seekoffExNS_8ios_base7seekdirEj, symObjAddr: 0x1E0C, symBinAddr: 0x902EC, symSize: 0x100 }
  - { offset: 0x186CA8, size: 0x8, addend: 0x0, symName: __ZNSt3__113basic_filebufIcNS_11char_traitsIcEEE7seekposENS_4fposI11__mbstate_tEEj, symObjAddr: 0x1F0C, symBinAddr: 0x903EC, symSize: 0xB0 }
  - { offset: 0x186CE3, size: 0x8, addend: 0x0, symName: __ZNSt3__113basic_filebufIcNS_11char_traitsIcEEE7seekposENS_4fposI11__mbstate_tEEj, symObjAddr: 0x1F0C, symBinAddr: 0x903EC, symSize: 0xB0 }
  - { offset: 0x186E76, size: 0x8, addend: 0x0, symName: __ZNSt3__113basic_filebufIcNS_11char_traitsIcEEE4syncEv, symObjAddr: 0x1FBC, symBinAddr: 0x9049C, symSize: 0x240 }
  - { offset: 0x187163, size: 0x8, addend: 0x0, symName: __ZNSt3__113basic_filebufIcNS_11char_traitsIcEEE9underflowEv, symObjAddr: 0x21FC, symBinAddr: 0x906DC, symSize: 0x270 }
  - { offset: 0x187252, size: 0x8, addend: 0x0, symName: __ZNSt3__113basic_filebufIcNS_11char_traitsIcEEE9underflowEv, symObjAddr: 0x21FC, symBinAddr: 0x906DC, symSize: 0x270 }
  - { offset: 0x1875F8, size: 0x8, addend: 0x0, symName: __ZNSt3__113basic_filebufIcNS_11char_traitsIcEEE9pbackfailEi, symObjAddr: 0x246C, symBinAddr: 0x9094C, symSize: 0x5C }
  - { offset: 0x187645, size: 0x8, addend: 0x0, symName: __ZNSt3__113basic_filebufIcNS_11char_traitsIcEEE9pbackfailEi, symObjAddr: 0x246C, symBinAddr: 0x9094C, symSize: 0x5C }
  - { offset: 0x1877CB, size: 0x8, addend: 0x0, symName: __ZNSt3__113basic_filebufIcNS_11char_traitsIcEEE8overflowEi, symObjAddr: 0x24C8, symBinAddr: 0x909A8, symSize: 0x1E8 }
  - { offset: 0x188F74, size: 0x8, addend: 0x0, symName: __ZNSt3__14pairIKNS_12basic_stringIcNS_11char_traitsIcEENS_9allocatorIcEEEEKN8cpptrace2v16detail15snippet_managerEEC2B8ne180100EOSD_, symObjAddr: 0x3540, symBinAddr: 0x913D4, symSize: 0x148 }
  - { offset: 0x189A6B, size: 0x8, addend: 0x0, symName: __ZNSt3__110unique_ptrINS_11__hash_nodeINS_17__hash_value_typeINS_12basic_stringIcNS_11char_traitsIcEENS_9allocatorIcEEEEKN8cpptrace2v16detail15snippet_managerEEEPvEENS_22__hash_node_destructorINS6_ISG_EEEEED1B8ne180100Ev, symObjAddr: 0x34C8, symBinAddr: 0x9135C, symSize: 0x78 }
  - { offset: 0x19D67F, size: 0x8, addend: 0x0, symName: __ZN8cpptrace2v16detail14collate_framesERKNSt3__16vectorINS0_12object_frameENS2_9allocatorIS4_EEEERNS3_INS0_16stacktrace_frameENS5_ISA_EEEE, symObjAddr: 0x0, symBinAddr: 0x9151C, symSize: 0x4 }
  - { offset: 0x19D6BD, size: 0x8, addend: 0x0, symName: __ZN8cpptrace2v16detail14collate_framesERKNSt3__16vectorINS0_12object_frameENS2_9allocatorIS4_EEEERNS3_INS0_16stacktrace_frameENS5_ISA_EEEE, symObjAddr: 0x0, symBinAddr: 0x9151C, symSize: 0x4 }
  - { offset: 0x19D6DE, size: 0x8, addend: 0x0, symName: __ZN8cpptrace2v16detail14collate_framesINSt3__16vectorINS3_4pairINS3_17reference_wrapperIKNS0_12object_frameEEENS6_INS0_16stacktrace_frameEEEEENS3_9allocatorISC_EEEESA_EENS3_13unordered_mapINS3_12basic_stringIcNS3_11char_traitsIcEENSD_IcEEEET_NS3_4hashISL_EENS3_8equal_toISL_EENSD_INS5_IKSL_SM_EEEEEERKNS4_IS7_NSD_IS7_EEEERNS4_IT0_NSD_ISZ_EEEE, symObjAddr: 0x4, symBinAddr: 0x91520, symSize: 0x1B4 }
  - { offset: 0x19E0B8, size: 0x8, addend: 0x0, symName: __ZN8cpptrace2v16detail14collate_framesERKNSt3__16vectorINS0_12object_frameENS2_9allocatorIS4_EEEERNS3_INS1_18frame_with_inlinesENS5_ISA_EEEE, symObjAddr: 0x1B8, symBinAddr: 0x916D4, symSize: 0x4 }
  - { offset: 0x19E0F6, size: 0x8, addend: 0x0, symName: __ZN8cpptrace2v16detail14collate_framesERKNSt3__16vectorINS0_12object_frameENS2_9allocatorIS4_EEEERNS3_INS1_18frame_with_inlinesENS5_ISA_EEEE, symObjAddr: 0x1B8, symBinAddr: 0x916D4, symSize: 0x4 }
  - { offset: 0x19E117, size: 0x8, addend: 0x0, symName: __ZN8cpptrace2v16detail14collate_framesINSt3__16vectorINS3_4pairINS3_17reference_wrapperIKNS0_12object_frameEEENS6_INS1_18frame_with_inlinesEEEEENS3_9allocatorISC_EEEESA_EENS3_13unordered_mapINS3_12basic_stringIcNS3_11char_traitsIcEENSD_IcEEEET_NS3_4hashISL_EENS3_8equal_toISL_EENSD_INS5_IKSL_SM_EEEEEERKNS4_IS7_NSD_IS7_EEEERNS4_IT0_NSD_ISZ_EEEE, symObjAddr: 0x1BC, symBinAddr: 0x916D8, symSize: 0x1B4 }
  - { offset: 0x19EAF1, size: 0x8, addend: 0x0, symName: __ZN8cpptrace2v16detail11fill_blanksERNSt3__16vectorINS0_16stacktrace_frameENS2_9allocatorIS4_EEEEPFS7_RKNS3_ImNS5_ImEEEEE, symObjAddr: 0x370, symBinAddr: 0x9188C, symSize: 0x58C }
  - { offset: 0x1A0085, size: 0x8, addend: 0x0, symName: __ZN8cpptrace2v16detail14resolve_framesERKNSt3__16vectorINS0_12object_frameENS2_9allocatorIS4_EEEE, symObjAddr: 0x988, symBinAddr: 0x91E18, symSize: 0x194 }
  - { offset: 0x1A04AC, size: 0x8, addend: 0x0, symName: __ZN8cpptrace2v16detail14resolve_framesERKNSt3__16vectorImNS2_9allocatorImEEEE, symObjAddr: 0xB1C, symBinAddr: 0x91FAC, symSize: 0x4 }
  - { offset: 0x1A04DC, size: 0x8, addend: 0x0, symName: __ZN8cpptrace2v16detail14resolve_framesERKNSt3__16vectorImNS2_9allocatorImEEEE, symObjAddr: 0xB1C, symBinAddr: 0x91FAC, symSize: 0x4 }
  - { offset: 0x1A1CEF, size: 0x8, addend: 0x0, symName: __ZNSt3__112__hash_tableINS_17__hash_value_typeINS_12basic_stringIcNS_11char_traitsIcEENS_9allocatorIcEEEENS_6vectorINS_4pairINS_17reference_wrapperIKN8cpptrace2v112object_frameEEENSA_INSC_16stacktrace_frameEEEEENS5_ISI_EEEEEENS_22__unordered_map_hasherIS7_SL_NS_4hashIS7_EENS_8equal_toIS7_EELb1EEENS_21__unordered_map_equalIS7_SL_SQ_SO_Lb1EEENS5_ISL_EEE25__emplace_unique_key_argsIS7_JRKNS_21piecewise_construct_tENS_5tupleIJRKS7_EEENS10_IJEEEEEENS9_INS_15__hash_iteratorIPNS_11__hash_nodeISL_PvEEEEbEERKT_DpOT0_, symObjAddr: 0xE50, symBinAddr: 0x92028, symSize: 0x3B8 }
  - { offset: 0x1A27F1, size: 0x8, addend: 0x0, symName: __ZNSt3__113unordered_mapINS_12basic_stringIcNS_11char_traitsIcEENS_9allocatorIcEEEENS_6vectorINS_4pairINS_17reference_wrapperIKN8cpptrace2v112object_frameEEENS9_INSB_16stacktrace_frameEEEEENS4_ISH_EEEENS_4hashIS6_EENS_8equal_toIS6_EENS4_INS8_IKS6_SJ_EEEEED1B8ne180100Ev, symObjAddr: 0xDD8, symBinAddr: 0x91FB0, symSize: 0x78 }
  - { offset: 0x1A35CA, size: 0x8, addend: 0x0, symName: __ZNSt3__112__hash_tableINS_17__hash_value_typeINS_12basic_stringIcNS_11char_traitsIcEENS_9allocatorIcEEEENS_6vectorINS_4pairINS_17reference_wrapperIKN8cpptrace2v112object_frameEEENSA_INSC_6detail18frame_with_inlinesEEEEENS5_ISJ_EEEEEENS_22__unordered_map_hasherIS7_SM_NS_4hashIS7_EENS_8equal_toIS7_EELb1EEENS_21__unordered_map_equalIS7_SM_SR_SP_Lb1EEENS5_ISM_EEE25__emplace_unique_key_argsIS7_JRKNS_21piecewise_construct_tENS_5tupleIJRKS7_EEENS11_IJEEEEEENS9_INS_15__hash_iteratorIPNS_11__hash_nodeISM_PvEEEEbEERKT_DpOT0_, symObjAddr: 0x1910, symBinAddr: 0x9243C, symSize: 0x3B8 }
  - { offset: 0x1A5975, size: 0x8, addend: 0x0, symName: __ZNSt3__113unordered_mapINS_12basic_stringIcNS_11char_traitsIcEENS_9allocatorIcEEEENS_6vectorINS_4pairINS_17reference_wrapperIKN8cpptrace2v112object_frameEEENS9_INSB_16stacktrace_frameEEEEENS4_ISH_EEEENS_4hashIS6_EENS_8equal_toIS6_EENS4_INS8_IKS6_SJ_EEEEED1B8ne180100Ev, symObjAddr: 0xDD8, symBinAddr: 0x91FB0, symSize: 0x78 }
  - { offset: 0x1A6ED3, size: 0x8, addend: 0x0, symName: __ZNSt3__110unique_ptrINS_11__hash_nodeINS_17__hash_value_typeINS_12basic_stringIcNS_11char_traitsIcEENS_9allocatorIcEEEENS_6vectorINS_4pairINS_17reference_wrapperIKN8cpptrace2v112object_frameEEENSB_INSD_16stacktrace_frameEEEEENS6_ISJ_EEEEEEPvEENS_22__hash_node_destructorINS6_ISO_EEEEED1B8ne180100Ev, symObjAddr: 0x1208, symBinAddr: 0x923E0, symSize: 0x5C }
  - { offset: 0x1AA494, size: 0x8, addend: 0x0, symName: __ZN8cpptrace2v16detail5libdl13resolve_frameEm, symObjAddr: 0x0, symBinAddr: 0x927F4, symSize: 0x2C0 }
  - { offset: 0x1AFC0F, size: 0x8, addend: 0x0, symName: __ZN8cpptrace2v16detail5libdl13resolve_frameEm, symObjAddr: 0x0, symBinAddr: 0x927F4, symSize: 0x2C0 }
  - { offset: 0x1B0F6F, size: 0x8, addend: 0x0, symName: __ZN8cpptrace2v16detail5libdl14resolve_framesERKNSt3__16vectorImNS3_9allocatorImEEEE, symObjAddr: 0x30C, symBinAddr: 0x92AB4, symSize: 0x154 }
  - { offset: 0x1B1ED6, size: 0x8, addend: 0x0, symName: __ZNSt3__16vectorIN8cpptrace2v116stacktrace_frameENS_9allocatorIS3_EEE7reserveEm, symObjAddr: 0x460, symBinAddr: 0x92C08, symSize: 0x16C }
  - { offset: 0x1B2664, size: 0x8, addend: 0x0, symName: __ZNSt3__16vectorIN8cpptrace2v116stacktrace_frameENS_9allocatorIS3_EEE21__push_back_slow_pathIS3_EEPS3_OT_, symObjAddr: 0x768, symBinAddr: 0x92D74, symSize: 0x1E4 }
  - { offset: 0x1B35B3, size: 0x8, addend: 0x0, symName: __ZNSt3__16vectorIN8cpptrace2v116stacktrace_frameENS_9allocatorIS3_EEE21__push_back_slow_pathIS3_EEPS3_OT_, symObjAddr: 0x768, symBinAddr: 0x92D74, symSize: 0x1E4 }
  - { offset: 0x1B55CB, size: 0x8, addend: 0x0, symName: __ZN8cpptrace2v16detail14capture_framesEmm, symObjAddr: 0x0, symBinAddr: 0x92F58, symSize: 0x21C }
  - { offset: 0x1B55E8, size: 0x8, addend: 0x0, symName: __ZN8cpptrace2v16detail14capture_framesEmm, symObjAddr: 0x0, symBinAddr: 0x92F58, symSize: 0x21C }
  - { offset: 0x1B5E3A, size: 0x8, addend: 0x0, symName: __ZN8cpptrace2v16detail19safe_capture_framesEPmmmm, symObjAddr: 0x21C, symBinAddr: 0x93174, symSize: 0x8 }
  - { offset: 0x1BB83C, size: 0x8, addend: 0x0, symName: __ZN8cpptrace2v16detail12file_deleterEP7__sFILE, symObjAddr: 0x284, symBinAddr: 0x93400, symSize: 0xC }
  - { offset: 0x1C0569, size: 0x8, addend: 0x0, symName: __ZNK8cpptrace2v16detail4file4pathEv, symObjAddr: 0x0, symBinAddr: 0x9317C, symSize: 0x24 }
  - { offset: 0x1C0C77, size: 0x8, addend: 0x0, symName: __ZN8cpptrace2v16detail4file4openENS1_12cstring_viewE, symObjAddr: 0x24, symBinAddr: 0x931A0, symSize: 0x260 }
  - { offset: 0x1C1B45, size: 0x8, addend: 0x0, symName: __ZN8cpptrace2v16detail4fileD1Ev, symObjAddr: 0x3A0, symBinAddr: 0x9340C, symSize: 0x60 }
  - { offset: 0x1C1DFE, size: 0x8, addend: 0x0, symName: __ZNK8cpptrace2v16detail4file10read_bytesENS1_4spanIcEEx, symObjAddr: 0x400, symBinAddr: 0x9346C, symSize: 0x1D8 }
  - { offset: 0x1C24B6, size: 0x8, addend: 0x0, symName: __ZN8cpptrace2v16detail14internal_errorC1IJNS1_11string_viewERxEEEPKcDpOT_, symObjAddr: 0x5D8, symBinAddr: 0x93644, symSize: 0xE4 }
  - { offset: 0x1C2845, size: 0x8, addend: 0x0, symName: __ZN8cpptrace2v16detail14internal_errorC1IJNS1_11string_viewERxmEEEPKcDpOT_, symObjAddr: 0x6BC, symBinAddr: 0x93728, symSize: 0xF4 }
  - { offset: 0x1C2CDC, size: 0x8, addend: 0x0, symName: __ZN8cpptrace2v16detail4fileD0Ev, symObjAddr: 0x7B0, symBinAddr: 0x9381C, symSize: 0x5C }
  - { offset: 0x1C58BA, size: 0x8, addend: 0x0, symName: __ZNK8cpptrace2v16detail16memory_file_view4pathEv, symObjAddr: 0x0, symBinAddr: 0x93878, symSize: 0x24 }
  - { offset: 0x1CA81B, size: 0x8, addend: 0x0, symName: __ZNK8cpptrace2v16detail16memory_file_view4pathEv, symObjAddr: 0x0, symBinAddr: 0x93878, symSize: 0x24 }
  - { offset: 0x1CAB76, size: 0x8, addend: 0x0, symName: __ZNK8cpptrace2v16detail16memory_file_view10read_bytesENS1_4spanIcEEx, symObjAddr: 0x24, symBinAddr: 0x9389C, symSize: 0x1D4 }
  - { offset: 0x1CB238, size: 0x8, addend: 0x0, symName: __ZN8cpptrace2v16detail14internal_errorC1IJNS1_11string_viewERxmmEEEPKcDpOT_, symObjAddr: 0x318, symBinAddr: 0x93A70, symSize: 0xFC }
  - { offset: 0x1CBB38, size: 0x8, addend: 0x0, symName: __ZN8cpptrace2v16detail16memory_file_viewD1Ev, symObjAddr: 0x414, symBinAddr: 0x93B6C, symSize: 0x3C }
  - { offset: 0x1CBCCB, size: 0x8, addend: 0x0, symName: __ZN8cpptrace2v16detail16memory_file_viewD0Ev, symObjAddr: 0x450, symBinAddr: 0x93BA8, symSize: 0x3C }
  - { offset: 0x1CEA88, size: 0x8, addend: 0x0, symName: __ZN8cpptrace2v16detailL14assert_actionsE, symObjAddr: 0x1D18, symBinAddr: 0xAF510, symSize: 0x0 }
  - { offset: 0x1CEAA1, size: 0x8, addend: 0x0, symName: __ZN8cpptrace2v16detailL12assert_namesE, symObjAddr: 0x1D30, symBinAddr: 0xAF528, symSize: 0x0 }
  - { offset: 0x1CEC40, size: 0x8, addend: 0x0, symName: __ZN8cpptrace2v16detail11assert_failENS1_11assert_typeEPKcS4_NS1_15source_locationES4_, symObjAddr: 0xE0, symBinAddr: 0x93CC4, symSize: 0xE8 }
  - { offset: 0x1CED35, size: 0x8, addend: 0x0, symName: __ZN8cpptrace2v16detail5panicEPKcNS1_15source_locationENS1_11string_viewE, symObjAddr: 0x4BC, symBinAddr: 0x94064, symSize: 0xC4 }
  - { offset: 0x1CEE0A, size: 0x8, addend: 0x0, symName: __ZN8cpptrace2v16detail33log_and_maybe_propagate_exceptionESt13exception_ptr, symObjAddr: 0x7E4, symBinAddr: 0x9438C, symSize: 0x1EC }
  - { offset: 0x1CF666, size: 0x8, addend: 0x0, symName: __ZN8cpptrace2v16detail3log5errorIJPKcEEEvS5_DpOT_, symObjAddr: 0xD58, symBinAddr: 0x947D0, symSize: 0xD0 }
  - { offset: 0x1CF9B0, size: 0x8, addend: 0x0, symName: __ZN8cpptrace2v16detail3log5errorIJNSt3__112basic_stringIcNS4_11char_traitsIcEENS4_9allocatorIcEEEEPKcEEEvSC_DpOT_, symObjAddr: 0xBCC, symBinAddr: 0x94644, symSize: 0xDC }
  - { offset: 0x1CFD5F, size: 0x8, addend: 0x0, symName: __ZN8cpptrace2v16detail3log5errorIJNSt3__112basic_stringIcNS4_11char_traitsIcEENS4_9allocatorIcEEEEEEEvPKcDpOT_, symObjAddr: 0x9D0, symBinAddr: 0x94578, symSize: 0xCC }
  - { offset: 0x1D528A, size: 0x8, addend: 0x0, symName: __ZN8cpptrace2v16detail14internal_errorC2ENSt3__112basic_stringIcNS3_11char_traitsIcEENS3_9allocatorIcEEEE, symObjAddr: 0x0, symBinAddr: 0x93BE4, symSize: 0x70 }
  - { offset: 0x1D5391, size: 0x8, addend: 0x0, symName: __ZN8cpptrace2v16detail14internal_errorC1ENSt3__112basic_stringIcNS3_11char_traitsIcEENS3_9allocatorIcEEEE, symObjAddr: 0x70, symBinAddr: 0x93C54, symSize: 0x70 }
  - { offset: 0x1D54A0, size: 0x8, addend: 0x0, symName: __ZN8cpptrace2v16detail14internal_errorC1IJRPKcRKS5_RKiS6_S6_S6_EEES5_DpOT_, symObjAddr: 0x1C8, symBinAddr: 0x93DAC, symSize: 0x150 }
  - { offset: 0x1D5A57, size: 0x8, addend: 0x0, symName: __ZN8cpptrace2v16detail14internal_errorC1IJRPKcRKS5_RKiS6_S6_S6_S6_EEES5_DpOT_, symObjAddr: 0x354, symBinAddr: 0x93EFC, symSize: 0x168 }
  - { offset: 0x1D6317, size: 0x8, addend: 0x0, symName: __ZN8cpptrace2v16detail14internal_errorC1IJRKPKcRKiRS5_EEES5_DpOT_, symObjAddr: 0x580, symBinAddr: 0x94128, symSize: 0x12C }
  - { offset: 0x1D67B9, size: 0x8, addend: 0x0, symName: __ZN8cpptrace2v16detail14internal_errorC1IJRKPKcRKiRS5_RNS1_11string_viewEEEES5_DpOT_, symObjAddr: 0x6AC, symBinAddr: 0x94254, symSize: 0x138 }
  - { offset: 0x1D6D20, size: 0x8, addend: 0x0, symName: __ZNSt3__112basic_stringIcNS_11char_traitsIcEENS_9allocatorIcEEEC1B8ne180100ILi0EEEPKc, symObjAddr: 0xCA8, symBinAddr: 0x94720, symSize: 0xB0 }
  - { offset: 0x1D7114, size: 0x8, addend: 0x0, symName: __ZN8cpptrace2v16detail3log5errorIJPKcEEEvS5_DpOT_, symObjAddr: 0xD58, symBinAddr: 0x947D0, symSize: 0xD0 }
  - { offset: 0x1D9F6E, size: 0x8, addend: 0x0, symName: __ZN8cpptrace2v16detail11replace_allERNSt3__112basic_stringIcNS2_11char_traitsIcEENS2_9allocatorIcEEEENS1_11string_viewESA_, symObjAddr: 0x0, symBinAddr: 0x948A0, symSize: 0x114 }
  - { offset: 0x1E8829, size: 0x8, addend: 0x0, symName: __ZN8cpptrace2v16detail11replace_allERNSt3__112basic_stringIcNS2_11char_traitsIcEENS2_9allocatorIcEEEENS1_11string_viewESA_, symObjAddr: 0x0, symBinAddr: 0x948A0, symSize: 0x114 }
  - { offset: 0x1E8A2B, size: 0x8, addend: 0x0, symName: __ZN8cpptrace2v16detail11replace_allERNSt3__112basic_stringIcNS2_11char_traitsIcEENS2_9allocatorIcEEEERKNS2_11basic_regexIcNS2_12regex_traitsIcEEEENS1_11string_viewE, symObjAddr: 0x114, symBinAddr: 0x949B4, symSize: 0x1FC }
  - { offset: 0x1E9691, size: 0x8, addend: 0x0, symName: __ZN8cpptrace2v16detail19replace_all_dynamicERNSt3__112basic_stringIcNS2_11char_traitsIcEENS2_9allocatorIcEEEENS1_11string_viewESA_, symObjAddr: 0x310, symBinAddr: 0x94BB0, symSize: 0x118 }
  - { offset: 0x1E988F, size: 0x8, addend: 0x0, symName: __ZN8cpptrace2v16detail20replace_all_templateERNSt3__112basic_stringIcNS2_11char_traitsIcEENS2_9allocatorIcEEEERKNS2_4pairINS2_11basic_regexIcNS2_12regex_traitsIcEEEENS1_11string_viewEEE, symObjAddr: 0x428, symBinAddr: 0x94CC8, symSize: 0x23C }
  - { offset: 0x1EAA61, size: 0x8, addend: 0x0, symName: __ZNKSt3__111basic_regexIcNS_12regex_traitsIcEEE8__searchINS_9allocatorINS_9sub_matchIPKcEEEEEEbS8_S8_RNS_13match_resultsIS8_T_EENS_15regex_constants15match_flag_typeE, symObjAddr: 0x700, symBinAddr: 0x94F04, symSize: 0x2F8 }
  - { offset: 0x1EB06B, size: 0x8, addend: 0x0, symName: __ZNSt3__113match_resultsINS_11__wrap_iterIPKcEENS_9allocatorINS_9sub_matchIS4_EEEEE8__assignB8ne180100IS3_NS5_INS6_IS3_EEEEEEvS4_S4_RKNS0_IT_T0_EEb, symObjAddr: 0x9F8, symBinAddr: 0x951FC, symSize: 0x1BC }
  - { offset: 0x1EBE2D, size: 0x8, addend: 0x0, symName: __ZNKSt3__111basic_regexIcNS_12regex_traitsIcEEE27__match_at_start_posix_subsINS_9allocatorINS_9sub_matchIPKcEEEEEEbS8_S8_RNS_13match_resultsIS8_T_EENS_15regex_constants15match_flag_typeEb, symObjAddr: 0x19F8, symBinAddr: 0x95C48, symSize: 0x5D0 }
  - { offset: 0x1EE948, size: 0x8, addend: 0x0, symName: __ZNKSt3__111basic_regexIcNS_12regex_traitsIcEEE29__match_at_start_posix_nosubsINS_9allocatorINS_9sub_matchIPKcEEEEEEbS8_S8_RNS_13match_resultsIS8_T_EENS_15regex_constants15match_flag_typeEb, symObjAddr: 0x1168, symBinAddr: 0x953B8, symSize: 0x890 }
  - { offset: 0x1F4663, size: 0x8, addend: 0x0, symName: __ZNSt3__16vectorINS_9sub_matchIPKcEENS_9allocatorIS4_EEE18__assign_with_sizeB8ne180100IPS4_S9_EEvT_T0_l, symObjAddr: 0x37B8, symBinAddr: 0x96218, symSize: 0x1FC }
  - { offset: 0x1F4FC3, size: 0x8, addend: 0x0, symName: __ZNSt3__16vectorINS_4pairImPKcEENS_9allocatorIS4_EEE18__assign_with_sizeB8ne180100IPS4_S9_EEvT_T0_l, symObjAddr: 0x39B4, symBinAddr: 0x96414, symSize: 0x31C }
  - { offset: 0x1F4FE7, size: 0x8, addend: 0x0, symName: __ZNSt3__16vectorINS_4pairImPKcEENS_9allocatorIS4_EEE18__assign_with_sizeB8ne180100IPS4_S9_EEvT_T0_l, symObjAddr: 0x39B4, symBinAddr: 0x96414, symSize: 0x31C }
  - { offset: 0x1F78F4, size: 0x8, addend: 0x0, symName: __ZNSt3__16vectorINS_9sub_matchIPKcEENS_9allocatorIS4_EEE18__assign_with_sizeB8ne180100IPS4_S9_EEvT_T0_l, symObjAddr: 0x37B8, symBinAddr: 0x96218, symSize: 0x1FC }
  - { offset: 0x1F9CBD, size: 0x8, addend: 0x0, symName: __ZNK8cpptrace2v16detail11string_viewixEm, symObjAddr: 0x0, symBinAddr: 0x96730, symSize: 0xC }
  - { offset: 0x1F9CE7, size: 0x8, addend: 0x0, symName: __ZN8cpptrace2v16detail11string_view4nposE, symObjAddr: 0xF60, symBinAddr: 0xA9018, symSize: 0x0 }
  - { offset: 0x1F9D2B, size: 0x8, addend: 0x0, symName: __ZN8cpptrace2v16detaileqENS1_11string_viewES2_, symObjAddr: 0x1D0, symBinAddr: 0x96900, symSize: 0x38 }
  - { offset: 0x1FABD9, size: 0x8, addend: 0x0, symName: __ZN8cpptrace2v18microfmt6formatIA30_cJRmmEEENSt3__112basic_stringIcNS5_11char_traitsIcEENS5_9allocatorIcEEEERKT_DpOT0_, symObjAddr: 0xE4, symBinAddr: 0x96814, symSize: 0xB4 }
  - { offset: 0x1FE881, size: 0x8, addend: 0x0, symName: __ZN8cpptrace2v16detail12cstring_view4nposE, symObjAddr: 0xF68, symBinAddr: 0xA9020, symSize: 0x0 }
  - { offset: 0x1FE8EB, size: 0x8, addend: 0x0, symName: __ZNK8cpptrace2v16detail11string_viewixEm, symObjAddr: 0x0, symBinAddr: 0x96730, symSize: 0xC }
  - { offset: 0x1FEA05, size: 0x8, addend: 0x0, symName: __ZNK8cpptrace2v16detail11string_view2atEm, symObjAddr: 0xC, symBinAddr: 0x9673C, symSize: 0xD8 }
  - { offset: 0x1FED54, size: 0x8, addend: 0x0, symName: __ZNK8cpptrace2v16detail11string_view11starts_withES2_, symObjAddr: 0x198, symBinAddr: 0x968C8, symSize: 0x38 }
  - { offset: 0x1FEE22, size: 0x8, addend: 0x0, symName: __ZNK8cpptrace2v16detail11string_view9ends_withES2_, symObjAddr: 0x208, symBinAddr: 0x96938, symSize: 0x3C }
  - { offset: 0x1FEF18, size: 0x8, addend: 0x0, symName: __ZNK8cpptrace2v16detail11string_view12find_last_ofES2_, symObjAddr: 0x244, symBinAddr: 0x96974, symSize: 0x8C }
  - { offset: 0x1FF08B, size: 0x8, addend: 0x0, symName: __ZNK8cpptrace2v16detail12cstring_view6substrEm, symObjAddr: 0x2D0, symBinAddr: 0x96A00, symSize: 0x10 }
  - { offset: 0x201CA0, size: 0x8, addend: 0x0, symName: __ZN8cpptrace2v16detail6isattyEi, symObjAddr: 0x0, symBinAddr: 0x96A10, symSize: 0x1C }
  - { offset: 0x201CBD, size: 0x8, addend: 0x0, symName: __ZN8cpptrace2v16detail6isattyEi, symObjAddr: 0x0, symBinAddr: 0x96A10, symSize: 0x1C }
  - { offset: 0x201D00, size: 0x8, addend: 0x0, symName: __ZN8cpptrace2v16detail6filenoEP7__sFILE, symObjAddr: 0x1C, symBinAddr: 0x96A2C, symSize: 0x4 }
  - { offset: 0x201D30, size: 0x8, addend: 0x0, symName: __ZN8cpptrace2v16detail6filenoEP7__sFILE, symObjAddr: 0x1C, symBinAddr: 0x96A2C, symSize: 0x4 }
  - { offset: 0x201D43, size: 0x8, addend: 0x0, symName: __ZN8cpptrace2v16detail16directory_existsENS1_12cstring_viewE, symObjAddr: 0x24, symBinAddr: 0x96A30, symSize: 0x38 }
...
